

Microchip Technology PIC18 LITE Macro Assembler V1.21 build 54009 
                                                                                               Sun Mar 23 09:37:09 2014

Microchip Technology Omniscient Code Generator (Lite mode) build 54009
     1                           	processor	18F2550
     2                           	fnconf	rparam,??,?,0
     3                           	opt	pw 120
     4                           	opt	lm
     5                           	psect	smallconst,global,reloc=2,class=SMALLCONST,delta=1
     6                           	psect	nvCOMRAM,global,class=COMRAM,space=1,delta=1
     7                           	psect	nvBANK0,global,class=BANK0,space=1,delta=1
     8                           	psect	cinit,global,reloc=2,class=CODE,delta=1
     9                           	psect	bssCOMRAM,global,class=COMRAM,space=1,delta=1
    10                           	psect	bssBANK0,global,class=BANK0,space=1,delta=1
    11                           	psect	bssBANK1,global,class=BANK1,space=1,delta=1
    12                           	psect	cstackCOMRAM,global,class=COMRAM,space=1,delta=1
    13                           	psect	text0,global,reloc=2,class=CODE,delta=1
    14                           	psect	text1,global,reloc=2,class=CODE,delta=1
    15                           	psect	text2,global,reloc=2,class=CODE,delta=1
    16                           	psect	text3,global,reloc=2,class=CODE,delta=1
    17                           	psect	text4,global,reloc=2,class=CODE,delta=1
    18                           	psect	text5,global,reloc=2,class=CODE,delta=1
    19                           	psect	text6,global,reloc=2,class=CODE,delta=1
    20                           	psect	text7,global,reloc=2,class=CODE,delta=1
    21                           	psect	text8,global,reloc=2,class=CODE,delta=1
    22                           	psect	text9,global,reloc=2,class=CODE,delta=1
    23                           	psect	text10,global,reloc=2,class=CODE,delta=1
    24                           	psect	text11,global,reloc=2,class=CODE,delta=1
    25                           	psect	text12,global,reloc=2,class=CODE,delta=1
    26                           	psect	text13,global,reloc=2,class=CODE,delta=1
    27                           	psect	text14,global,reloc=2,class=CODE,delta=1
    28                           	psect	text15,global,reloc=2,class=CODE,delta=1
    29                           	psect	text16,global,reloc=2,class=CODE,delta=1
    30                           	psect	text17,global,reloc=2,class=CODE,delta=1
    31                           	psect	text18,global,reloc=2,class=CODE,delta=1
    32                           	psect	text19,global,reloc=2,class=CODE,delta=1
    33                           	psect	text20,global,reloc=2,class=CODE,delta=1
    34                           	psect	text21,global,reloc=2,class=CODE,delta=1
    35                           	psect	text22,global,reloc=2,class=CODE,delta=1
    36                           	psect	text23,global,reloc=2,class=CODE,delta=1
    37                           	psect	text24,global,reloc=2,class=CODE,delta=1
    38                           	psect	text25,global,reloc=2,class=CODE,delta=1
    39                           	psect	text26,global,reloc=2,class=CODE,delta=1
    40                           	psect	text27,global,reloc=2,class=CODE,delta=1
    41                           	psect	text28,global,reloc=2,class=CODE,delta=1
    42                           	psect	text29,global,reloc=2,class=CODE,delta=1
    43                           	psect	text30,global,reloc=2,class=CODE,delta=1
    44                           	psect	text31,global,reloc=2,class=CODE,delta=1
    45                           	psect	text32,global,reloc=2,class=CODE,delta=1
    46                           	psect	text33,global,reloc=2,class=CODE,delta=1
    47                           	psect	text34,global,reloc=2,class=CODE,delta=1
    48                           	psect	text35,global,reloc=2,class=CODE,delta=1
    49                           	psect	text36,global,reloc=2,class=CODE,delta=1
    50                           	psect	text37,global,reloc=2,class=CODE,delta=1
    51                           	psect	text38,global,reloc=2,class=CODE,delta=1
    52                           	psect	text39,global,reloc=2,class=CODE,delta=1
    53                           	psect	text40,global,reloc=2,class=CODE,delta=1
    54                           	psect	text41,global,reloc=2,class=CODE,delta=1
    55                           	psect	text42,global,reloc=2,class=CODE,delta=1
    56                           	psect	text43,global,reloc=2,class=CODE,delta=1
    57                           	psect	intsave_regs,global,class=BIGRAM,space=1,delta=1
    58                           	psect	text44,global,reloc=2,class=CODE,delta=1
    59                           	psect	rparam,global,class=COMRAM,space=1,delta=1
    60  0000                     
    61                           	psect	smallconst
    62  000800                     __psmallconst:
    63                           	opt stack 0
    64  000800                     _parity_str:
    65                           	opt stack 0
    66  000800  4E                 	db	78
    67  000801  4F                 	db	79
    68  000802  45                 	db	69
    69  000803  4D                 	db	77
    70  000804  53                 	db	83
    71  000805                     __end_of_parity_str:
    72                           	opt stack 0
    73  000805                     _cdc_str_descs:
    74                           	opt stack 0
    75  000805  04                 	db	4
    76  000806  03                 	db	3
    77  000807  09                 	db	9
    78  000808  04                 	db	4
    79  000809  2A                 	db	42
    80  00080A  03                 	db	3
    81  00080B  44                 	db	68
    82  00080C  00                 	db	0
    83  00080D  61                 	db	97
    84  00080E  00                 	db	0
    85  00080F  6E                 	db	110
    86  000810  00                 	db	0
    87  000811  67                 	db	103
    88  000812  00                 	db	0
    89  000813  65                 	db	101
    90  000814  00                 	db	0
    91  000815  72                 	db	114
    92  000816  00                 	db	0
    93  000817  6F                 	db	111
    94  000818  00                 	db	0
    95  000819  75                 	db	117
    96  00081A  00                 	db	0
    97  00081B  73                 	db	115
    98  00081C  00                 	db	0
    99  00081D  20                 	db	32
   100  00081E  00                 	db	0
   101  00081F  50                 	db	80
   102  000820  00                 	db	0
   103  000821  72                 	db	114
   104  000822  00                 	db	0
   105  000823  6F                 	db	111
   106  000824  00                 	db	0
   107  000825  74                 	db	116
   108  000826  00                 	db	0
   109  000827  6F                 	db	111
   110  000828  00                 	db	0
   111  000829  74                 	db	116
   112  00082A  00                 	db	0
   113  00082B  79                 	db	121
   114  00082C  00                 	db	0
   115  00082D  70                 	db	112
   116  00082E  00                 	db	0
   117  00082F  65                 	db	101
   118  000830  00                 	db	0
   119  000831  73                 	db	115
   120  000832  00                 	db	0
   121  000833  12                 	db	18
   122  000834  03                 	db	3
   123  000835  43                 	db	67
   124  000836  00                 	db	0
   125  000837  44                 	db	68
   126  000838  00                 	db	0
   127  000839  43                 	db	67
   128  00083A  00                 	db	0
   129  00083B  20                 	db	32
   130  00083C  00                 	db	0
   131  00083D  54                 	db	84
   132  00083E  00                 	db	0
   133  00083F  65                 	db	101
   134  000840  00                 	db	0
   135  000841  73                 	db	115
   136  000842  00                 	db	0
   137  000843  74                 	db	116
   138  000844  00                 	db	0
   139  000845  12                 	db	18
   140  000846  03                 	db	3
   141  000847  30                 	db	48
   142  000848  00                 	db	0
   143  000849  30                 	db	48
   144  00084A  00                 	db	0
   145  00084B  30                 	db	48
   146  00084C  00                 	db	0
   147  00084D  30                 	db	48
   148  00084E  00                 	db	0
   149  00084F  30                 	db	48
   150  000850  00                 	db	0
   151  000851  30                 	db	48
   152  000852  00                 	db	0
   153  000853  30                 	db	48
   154  000854  00                 	db	0
   155  000855  31                 	db	49
   156  000856  00                 	db	0
   157  000857                     __end_of_cdc_str_descs:
   158                           	opt stack 0
   159  000857                     _cdc_config_descriptor:
   160                           	opt stack 0
   161  000857  09                 	db	9
   162  000858  02                 	db	2
   163  000859  43                 	db	67
   164  00085A  00                 	db	0
   165  00085B  02                 	db	2
   166  00085C  01                 	db	1
   167  00085D  00                 	db	0
   168  00085E  80                 	db	128
   169  00085F  64                 	db	100
   170  000860  09                 	db	9
   171  000861  04                 	db	4
   172  000862  00                 	db	0
   173  000863  00                 	db	0
   174  000864  01                 	db	1
   175  000865  02                 	db	2
   176  000866  02                 	db	2
   177  000867  01                 	db	1
   178  000868  00                 	db	0
   179  000869  05                 	db	5
   180  00086A  24                 	db	36
   181  00086B  00                 	db	0
   182  00086C  10                 	db	16
   183  00086D  01                 	db	1
   184  00086E  04                 	db	4
   185  00086F  24                 	db	36
   186  000870  02                 	db	2
   187  000871  02                 	db	2
   188  000872  05                 	db	5
   189  000873  24                 	db	36
   190  000874  06                 	db	6
   191  000875  00                 	db	0
   192  000876  01                 	db	1
   193  000877  05                 	db	5
   194  000878  24                 	db	36
   195  000879  01                 	db	1
   196  00087A  01                 	db	1
   197  00087B  01                 	db	1
   198  00087C  07                 	db	7
   199  00087D  05                 	db	5
   200  00087E  81                 	db	129
   201  00087F  03                 	db	3
   202  000880  0A                 	db	10
   203  000881  00                 	db	0
   204  000882  40                 	db	64
   205  000883  09                 	db	9
   206  000884  04                 	db	4
   207  000885  01                 	db	1
   208  000886  00                 	db	0
   209  000887  02                 	db	2
   210  000888  0A                 	db	10
   211  000889  00                 	db	0
   212  00088A  00                 	db	0
   213  00088B  00                 	db	0
   214  00088C  07                 	db	7
   215  00088D  05                 	db	5
   216  00088E  02                 	db	2
   217  00088F  02                 	db	2
   218  000890  40                 	db	64
   219  000891  00                 	db	0
   220  000892  00                 	db	0
   221  000893  07                 	db	7
   222  000894  05                 	db	5
   223  000895  82                 	db	130
   224  000896  02                 	db	2
   225  000897  40                 	db	64
   226  000898  00                 	db	0
   227  000899  00                 	db	0
   228  00089A                     __end_of_cdc_config_descriptor:
   229                           	opt stack 0
   230  00089A                     _cdc_device_descriptor:
   231                           	opt stack 0
   232  00089A  12                 	db	18
   233  00089B  01                 	db	1
   234  00089C  00                 	db	0
   235  00089D  02                 	db	2
   236  00089E  02                 	db	2
   237  00089F  00                 	db	0
   238  0008A0  00                 	db	0
   239  0008A1  08                 	db	8
   240  0008A2  D8                 	db	216
   241  0008A3  04                 	db	4
   242  0008A4  0A                 	db	10
   243  0008A5  00                 	db	0
   244  0008A6  02                 	db	2
   245  0008A7  00                 	db	0
   246  0008A8  01                 	db	1
   247  0008A9  02                 	db	2
   248  0008AA  03                 	db	3
   249  0008AB  01                 	db	1
   250  0008AC                     __end_of_cdc_device_descriptor:
   251                           	opt stack 0
   252  0000                     _ADCON1	set	4033
   253  0000                     _CVRCON	set	4021
   254  0000                     _PORTBbits	set	3969
   255  0000                     _SPBRG	set	4015
   256  0000                     _SPBRGH	set	4016
   257  0000                     _TRISBbits	set	3987
   258  0000                     _UADDR	set	3950
   259  0000                     _UCFG	set	3951
   260  0000                     _UCONbits	set	3949
   261  0000                     _UEIR	set	3946
   262  0000                     _UEP1	set	3953
   263  0000                     _UEP2	set	3954
   264  0000                     _UIR	set	3944
   265  0000                     _UIRbits	set	3944
   266  0000                     _USTAT	set	3948
   267  0000                     _UEP0	set	3952
   268  0008AC  00                 	db	0	; dummy byte at the end
   269  0000                     
   270                           	psect	nvCOMRAM
   271  00005C                     __pnvCOMRAM:
   272                           	opt stack 0
   273  00005C                     _usb_device_descriptor:
   274                           	opt stack 0
   275  00005C                     	ds	3
   276                           
   277                           	psect	nvBANK0
   278  0000D4                     __pnvBANK0:
   279                           	opt stack 0
   280  0000D4                     _usb_config_descriptor:
   281                           	opt stack 0
   282  0000D4                     	ds	3
   283  0000D7                     _usb_string_descriptor:
   284                           	opt stack 0
   285  0000D7                     	ds	3
   286  0000DA                     _class_setup_handler:
   287                           	opt stack 0
   288  0000DA                     	ds	2
   289  0000DC                     _usb_num_string_descriptors:
   290                           	opt stack 0
   291  0000DC                     	ds	2
   292  0000DE                     _linecodeing:
   293                           	opt stack 0
   294  0000DE                     	ds	7
   295                           
   296                           ; #config settings
   297  0000                     
   298                           	psect	cinit
   299  0020FC                     __pcinit:
   300                           	opt stack 0
   301  0020FC                     start_initialization:
   302                           	opt stack 0
   303  0020FC                     __initialization:
   304                           	opt stack 0
   305                           
   306                           ; Clear objects allocated to BANK1 (256 bytes)
   307  0020FC  EE01  F000         	lfsr	0,__pbssBANK1
   308  002100  EE11 F000          	lfsr	1,256
   309  002104                     clear_0:
   310  002104  6AEE               	clrf	postinc0,c
   311  002106  50E5               	movf	postdec1,w,c
   312  002108  50E1               	movf	fsr1l,w,c
   313  00210A  E1FC               	bnz	clear_0
   314  00210C  50E2               	movf	fsr1h,w,c
   315  00210E  E1FA               	bnz	clear_0
   316                           
   317                           ; Clear objects allocated to BANK0 (116 bytes)
   318  002110  EE00  F060         	lfsr	0,__pbssBANK0
   319  002114  0E74               	movlw	116
   320  002116                     clear_1:
   321  002116  6AEE               	clrf	postinc0,c
   322  002118  06E8               	decf	wreg,f,c
   323  00211A  E1FD               	bnz	clear_1
   324                           
   325                           ; Clear objects allocated to COMRAM (45 bytes)
   326  00211C  EE00  F02F         	lfsr	0,__pbssCOMRAM
   327  002120  0E2D               	movlw	45
   328  002122                     clear_2:
   329  002122  6AEE               	clrf	postinc0,c
   330  002124  06E8               	decf	wreg,f,c
   331  002126  E1FD               	bnz	clear_2
   332  002128                     end_of_initialization:
   333                           	opt stack 0
   334  002128                     __end_of__initialization:
   335                           	opt stack 0
   336  002128  0E00               	movlw	low (__Lmediumconst shr (0+16))
   337  00212A  6EF8               	movwf	tblptru,c
   338  00212C  0100               	movlb	0
   339  00212E  EF78  F00D         	goto	_main	;jump to C main() function
   340                           tblptru	equ	0xFF8
   341                           postinc0	equ	0xFEE
   342                           wreg	equ	0xFE8
   343                           postdec1	equ	0xFE5
   344                           fsr1h	equ	0xFE2
   345                           fsr1l	equ	0xFE1
   346                           
   347                           	psect	bssCOMRAM
   348  00002F                     __pbssCOMRAM:
   349                           	opt stack 0
   350  00002F                     _usb_rom_ptr:
   351                           	opt stack 0
   352  00002F                     	ds	3
   353  000032                     _CDC_Inbdp:
   354                           	opt stack 0
   355  000032                     	ds	2
   356  000034                     _CDC_Outbdp:
   357                           	opt stack 0
   358  000034                     	ds	2
   359  000036                     _EP0_Inbdp:
   360                           	opt stack 0
   361  000036                     	ds	2
   362  000038                     _EP0_Outbdp:
   363                           	opt stack 0
   364  000038                     	ds	2
   365  00003A                     _InPtr:
   366                           	opt stack 0
   367  00003A                     	ds	2
   368  00003C                     _OutPtr:
   369                           	opt stack 0
   370  00003C                     	ds	2
   371  00003E                     _sof_handler:
   372                           	opt stack 0
   373  00003E                     	ds	2
   374  000040                     _usb_current_cfg:
   375                           	opt stack 0
   376  000040                     	ds	2
   377  000042                     _usb_device_status:
   378                           	opt stack 0
   379  000042                     	ds	2
   380  000044                     _usb_rom_len:
   381                           	opt stack 0
   382  000044                     	ds	2
   383  000046                     _vendor_setup_handler:
   384                           	opt stack 0
   385  000046                     	ds	2
   386  000048                     _CDCFunctionError:
   387                           	opt stack 0
   388  000048                     	ds	1
   389  000049                     _DATA4:
   390                           	opt stack 0
   391  000049                     	ds	1
   392  00004A                     _IsInBufferA:
   393                           	opt stack 0
   394  00004A                     	ds	1
   395  00004B                     _IsOutBufferA:
   396                           	opt stack 0
   397  00004B                     	ds	1
   398  00004C                     _IsSuspended:
   399                           	opt stack 0
   400  00004C                     	ds	1
   401  00004D                     _LineStateUpdated:
   402                           	opt stack 0
   403  00004D                     	ds	1
   404  00004E                     _PA:
   405                           	opt stack 0
   406  00004E                     	ds	1
   407  00004F                     _PB:
   408                           	opt stack 0
   409  00004F                     	ds	1
   410  000050                     _RS:
   411                           	opt stack 0
   412  000050                     	ds	1
   413  000051                     _ZLPpending:
   414                           	opt stack 0
   415  000051                     	ds	1
   416  000052                     _cdc_In_len:
   417                           	opt stack 0
   418  000052                     	ds	1
   419  000053                     _cdc_Out_len:
   420                           	opt stack 0
   421  000053                     	ds	1
   422  000054                     _cdc_timeout_count:
   423                           	opt stack 0
   424  000054                     	ds	1
   425  000055                     _cdc_trf_state:
   426                           	opt stack 0
   427  000055                     	ds	1
   428  000056                     _clkF:
   429                           	opt stack 0
   430  000056                     	ds	1
   431  000057                     _lock:
   432                           	opt stack 0
   433  000057                     	ds	1
   434  000058                     _trn_status:
   435                           	opt stack 0
   436  000058                     	ds	1
   437  000059                     _usb_addr_pending:
   438                           	opt stack 0
   439  000059                     	ds	1
   440  00005A                     _usb_device_state:
   441                           	opt stack 0
   442  00005A                     	ds	1
   443  00005B                     _usbrequesterrorflag:
   444                           	opt stack 0
   445  00005B                     	ds	1
   446                           tblptru	equ	0xFF8
   447                           postinc0	equ	0xFEE
   448                           wreg	equ	0xFE8
   449                           postdec1	equ	0xFE5
   450                           fsr1h	equ	0xFE2
   451                           fsr1l	equ	0xFE1
   452                           
   453                           	psect	bssBANK0
   454  000060                     __pbssBANK0:
   455                           	opt stack 0
   456  000060                     _endpoints:
   457                           	opt stack 0
   458  000060                     	ds	64
   459  0000A0                     _cls:
   460                           	opt stack 0
   461  0000A0                     	ds	2
   462  0000A2                     _usb_bdt:
   463                           	opt stack 0
   464  0000A2                     	ds	24
   465  0000BA                     _cdc_acm_in_buffer:
   466                           	opt stack 0
   467  0000BA                     	ds	10
   468  0000C4                     _usb_ep0_in_buf:
   469                           	opt stack 0
   470  0000C4                     	ds	8
   471  0000CC                     _usb_ep0_out_buf:
   472                           	opt stack 0
   473  0000CC                     	ds	8
   474                           tblptru	equ	0xFF8
   475                           postinc0	equ	0xFEE
   476                           wreg	equ	0xFE8
   477                           postdec1	equ	0xFE5
   478                           fsr1h	equ	0xFE2
   479                           fsr1l	equ	0xFE1
   480                           
   481                           	psect	bssBANK1
   482  000100                     __pbssBANK1:
   483                           	opt stack 0
   484  000100                     _cdc_In_bufferA:
   485                           	opt stack 0
   486  000100                     	ds	64
   487  000140                     _cdc_In_bufferB:
   488                           	opt stack 0
   489  000140                     	ds	64
   490  000180                     _cdc_Out_bufferA:
   491                           	opt stack 0
   492  000180                     	ds	64
   493  0001C0                     _cdc_Out_bufferB:
   494                           	opt stack 0
   495  0001C0                     	ds	64
   496                           tblptru	equ	0xFF8
   497                           postinc0	equ	0xFEE
   498                           wreg	equ	0xFE8
   499                           postdec1	equ	0xFE5
   500                           fsr1h	equ	0xFE2
   501                           fsr1l	equ	0xFE1
   502                           
   503                           	psect	cstackCOMRAM
   504  000001                     __pcstackCOMRAM:
   505                           	opt stack 0
   506  000001                     ?_usb_register_class_setup_handler:
   507                           	opt stack 0
   508  000001                     ?_usb_set_in_handler:
   509                           	opt stack 0
   510  000001                     ?_usb_set_out_handler:
   511                           	opt stack 0
   512  000001                     ?_usb_ack_dat1:
   513                           	opt stack 0
   514  000001                     ??_usb_RequestError:
   515  000001                     ??_ClearUSBtoDefault:
   516  000001                     ?_Delay10KTCYx:
   517                           	opt stack 0
   518  000001                     ??_WaitOutReady:
   519  000001                     ??_getOutReady:
   520  000001                     ??_getInReady:
   521  000001                     ?_usb_register_sof_handler:
   522                           	opt stack 0
   523  000001                     ?_putda_cdc:
   524                           	opt stack 0
   525  000001                     ?_memcpy:
   526                           	opt stack 0
   527  000001                     ?___awdiv:
   528                           	opt stack 0
   529  000001                     ?___lldiv:
   530                           	opt stack 0
   531  000001                     ?___llmod:
   532                           	opt stack 0
   533  000001                     putda_cdc@count:
   534                           	opt stack 0
   535  000001                     Delay10KTCYx@unit:
   536                           	opt stack 0
   537  000001                     usb_register_sof_handler@handler:
   538                           	opt stack 0
   539  000001                     usb_register_class_setup_handler@handler:
   540                           	opt stack 0
   541  000001                     usb_set_in_handler@ep:
   542                           	opt stack 0
   543  000001                     usb_set_out_handler@ep:
   544                           	opt stack 0
   545  000001                     usb_ack_dat1@bdcnt:
   546                           	opt stack 0
   547  000001                     ___awdiv@dividend:
   548                           	opt stack 0
   549  000001                     memcpy@d1:
   550                           	opt stack 0
   551  000001                     ___lldiv@dividend:
   552                           	opt stack 0
   553  000001                     ___llmod@dividend:
   554                           	opt stack 0
   555                           
   556                           ; 4 bytes @ 0x0
   557  000001                     	ds	1
   558  000002                     ??_Delay10KTCYx:
   559  000002                     ??_putda_cdc:
   560                           
   561                           ; 0 bytes @ 0x1
   562  000002                     	ds	1
   563  000003                     ?_usb_handle_StandardInterfaceRequest:
   564                           	opt stack 0
   565  000003                     ?_usb_handle_StandardEndpointRequest:
   566                           	opt stack 0
   567  000003                     ??_initCDC:
   568  000003                     ??_CDCFlushOnTimeout:
   569  000003                     ?_putc_cdc:
   570                           	opt stack 0
   571  000003                     putc_cdc@c:
   572                           	opt stack 0
   573  000003                     ClearUSBtoDefault@i:
   574                           	opt stack 0
   575  000003                     usb_handle_StandardInterfaceRequest@bdp:
   576                           	opt stack 0
   577  000003                     usb_handle_StandardEndpointRequest@bdp:
   578                           	opt stack 0
   579  000003                     usb_set_in_handler@in_handler:
   580                           	opt stack 0
   581  000003                     usb_set_out_handler@out_handler:
   582                           	opt stack 0
   583  000003                     ___awdiv@divisor:
   584                           	opt stack 0
   585  000003                     memcpy@s1:
   586                           	opt stack 0
   587                           
   588                           ; 2 bytes @ 0x2
   589  000003                     	ds	1
   590  000004                     ??_putc_cdc:
   591                           
   592                           ; 0 bytes @ 0x3
   593  000004                     	ds	1
   594  000005                     ??_usb_set_in_handler:
   595  000005                     ??_usb_set_out_handler:
   596  000005                     ??_usb_handle_StandardInterfaceRequest:
   597  000005                     ??_usb_handle_StandardEndpointRequest:
   598  000005                     ??_usb_handle_reset:
   599  000005                     ??___awdiv:
   600  000005                     memcpy@n:
   601                           	opt stack 0
   602  000005                     ___lldiv@divisor:
   603                           	opt stack 0
   604  000005                     ___llmod@divisor:
   605                           	opt stack 0
   606                           
   607                           ; 4 bytes @ 0x4
   608  000005                     	ds	1
   609  000006                     ___awdiv@counter:
   610                           	opt stack 0
   611                           
   612                           ; 1 bytes @ 0x5
   613  000006                     	ds	1
   614  000007                     ??_usb_send_rom:
   615  000007                     ??_user_configured_init:
   616  000007                     ?_usb_init:
   617                           	opt stack 0
   618  000007                     ___awdiv@sign:
   619                           	opt stack 0
   620  000007                     usb_init@device_descriptor:
   621                           	opt stack 0
   622  000007                     usb_handle_StandardInterfaceRequest@packet:
   623                           	opt stack 0
   624  000007                     usb_handle_StandardEndpointRequest@pUEP:
   625                           	opt stack 0
   626  000007                     memcpy@d:
   627                           	opt stack 0
   628                           
   629                           ; 2 bytes @ 0x6
   630  000007                     	ds	1
   631  000008                     ___awdiv@quotient:
   632                           	opt stack 0
   633                           
   634                           ; 2 bytes @ 0x7
   635  000008                     	ds	1
   636  000009                     ??___lldiv:
   637  000009                     ??___llmod:
   638  000009                     usb_handle_StandardEndpointRequest@epnum:
   639                           	opt stack 0
   640  000009                     usb_init@config_descriptor:
   641                           	opt stack 0
   642  000009                     memcpy@s:
   643                           	opt stack 0
   644                           
   645                           ; 2 bytes @ 0x8
   646  000009                     	ds	1
   647  00000A                     ___llmod@counter:
   648                           	opt stack 0
   649  00000A                     usb_handle_StandardEndpointRequest@epbd:
   650                           	opt stack 0
   651  00000A                     ___lldiv@quotient:
   652                           	opt stack 0
   653                           
   654                           ; 4 bytes @ 0x9
   655  00000A                     	ds	1
   656  00000B                     ??_cdc_setup:
   657  00000B                     usb_init@string_descriptor:
   658                           	opt stack 0
   659                           
   660                           ; 2 bytes @ 0xA
   661  00000B                     	ds	1
   662  00000C                     usb_handle_StandardEndpointRequest@dir:
   663                           	opt stack 0
   664  00000C                     usb_send_rom@i:
   665                           	opt stack 0
   666                           
   667                           ; 2 bytes @ 0xB
   668  00000C                     	ds	1
   669  00000D                     cdc_setup@reply_len:
   670                           	opt stack 0
   671  00000D                     usb_init@num_string_descriptors:
   672                           	opt stack 0
   673  00000D                     usb_handle_StandardEndpointRequest@packet:
   674                           	opt stack 0
   675                           
   676                           ; 2 bytes @ 0xC
   677  00000D                     	ds	1
   678  00000E                     ___lldiv@counter:
   679                           	opt stack 0
   680  00000E                     usb_send_rom@packet_len:
   681                           	opt stack 0
   682                           
   683                           ; 2 bytes @ 0xD
   684  00000E                     	ds	1
   685  00000F                     ??_cdc_set_line_coding_data:
   686  00000F                     cdc_setup@packet:
   687                           	opt stack 0
   688                           
   689                           ; 2 bytes @ 0xE
   690  00000F                     	ds	1
   691  000010                     ??_usb_handle_in:
   692  000010                     ?_usb_handle_StandardDeviceRequest:
   693                           	opt stack 0
   694  000010                     usb_handle_StandardDeviceRequest@bdp:
   695                           	opt stack 0
   696                           
   697                           ; 2 bytes @ 0xF
   698  000010                     	ds	2
   699  000012                     ??_usb_handle_StandardDeviceRequest:
   700                           
   701                           ; 0 bytes @ 0x11
   702  000012                     	ds	1
   703  000013                     cdc_set_line_coding_data@dwBaudrem:
   704                           	opt stack 0
   705                           
   706                           ; 4 bytes @ 0x12
   707  000013                     	ds	4
   708  000017                     cdc_set_line_coding_data@dwBaud:
   709                           	opt stack 0
   710                           
   711                           ; 4 bytes @ 0x16
   712  000017                     	ds	4
   713  00001B                     ??_usb_handle_out:
   714                           
   715                           ; 0 bytes @ 0x1A
   716  00001B                     	ds	3
   717  00001E                     usb_handle_StandardDeviceRequest@i:
   718                           	opt stack 0
   719                           
   720                           ; 2 bytes @ 0x1D
   721  00001E                     	ds	2
   722  000020                     usb_handle_StandardDeviceRequest@packet:
   723                           	opt stack 0
   724                           
   725                           ; 2 bytes @ 0x1F
   726  000020                     	ds	2
   727  000022                     ??_usb_handle_setup:
   728                           
   729                           ; 0 bytes @ 0x21
   730  000022                     	ds	4
   731  000026                     _usb_handle_setup$352:
   732                           	opt stack 0
   733                           
   734                           ; 2 bytes @ 0x25
   735  000026                     	ds	2
   736  000028                     ??_usb_handle_transaction:
   737                           
   738                           ; 0 bytes @ 0x27
   739  000028                     	ds	2
   740  00002A                     ??_getda_cdc:
   741                           
   742                           ; 0 bytes @ 0x29
   743  00002A                     	ds	1
   744  00002B                     ??_getc_cdc:
   745  00002B                     ?_peek_getc_cdc:
   746                           	opt stack 0
   747  00002B                     peek_getc_cdc@c:
   748                           	opt stack 0
   749                           
   750                           ; 2 bytes @ 0x2A
   751  00002B                     	ds	1
   752  00002C                     getc_cdc@c:
   753                           	opt stack 0
   754                           
   755                           ; 1 bytes @ 0x2B
   756  00002C                     	ds	1
   757  00002D                     ??_main:
   758                           
   759                           ; 0 bytes @ 0x2C
   760  00002D                     	ds	1
   761  00002E                     main@RecvdByte:
   762                           	opt stack 0
   763                           
   764                           ; 1 bytes @ 0x2D
   765  00002E                     	ds	1
   766                           tblptru	equ	0xFF8
   767                           postinc0	equ	0xFEE
   768                           wreg	equ	0xFE8
   769                           postdec1	equ	0xFE5
   770                           fsr1h	equ	0xFE2
   771                           fsr1l	equ	0xFE1
   772                           
   773 ;;
   774 ;;Main: autosize = 0, tempsize = 1, incstack = 0, save=0
   775 ;;
   776 ;; *************** function _main *****************
   777 ;; Defined at:
   778 ;;		line 31 in file "main.c"
   779 ;; Parameters:    Size  Location     Type
   780 ;;		None
   781 ;; Auto vars:     Size  Location     Type
   782 ;;  RecvdByte       1   45[COMRAM] unsigned char 
   783 ;; Return value:  Size  Location     Type
   784 ;;		None               void
   785 ;; Registers used:
   786 ;;		wreg, fsr1l, fsr1h, fsr2l, fsr2h, status,2, status,0, pclat, tosl, tblptrl, tblptrh, tblptru, prodl, prodh, cstack
   787 ;; Tracked objects:
   788 ;;		On entry : 0/0
   789 ;;		On exit  : 0/0
   790 ;;		Unchanged: 0/0
   791 ;; Data sizes:     COMRAM   BANK0   BANK1   BANK2   BANK3   BANK4   BANK5   BANK6   BANK7
   792 ;;      Params:         0       0       0       0       0       0       0       0       0
   793 ;;      Locals:         1       0       0       0       0       0       0       0       0
   794 ;;      Temps:          1       0       0       0       0       0       0       0       0
   795 ;;      Totals:         2       0       0       0       0       0       0       0       0
   796 ;;Total ram usage:        2 bytes
   797 ;; Hardware stack levels required when called:    8
   798 ;; This function calls:
   799 ;;		_initCDC
   800 ;;		_usb_handler
   801 ;;		_putc_cdc
   802 ;;		_getc_cdc
   803 ;;		_peek_getc_cdc
   804 ;;		_usb_init
   805 ;;		_usb_start
   806 ;;		_usb_register_sof_handler
   807 ;;		_SetupBoard
   808 ;;		_Delay10KTCYx
   809 ;; This function is called by:
   810 ;;		Startup code after reset
   811 ;; This function uses a non-reentrant model
   812 ;;
   813                           
   814                           	psect	text0
   815  001AF0                     __ptext0:
   816                           	opt stack 0
   817  001AF0                     _main:
   818                           	opt stack 22
   819                           
   820                           ;main.c: 32: BYTE RecvdByte;
   821                           ;main.c: 34: initCDC();
   822                           
   823                           ;incstack = 0
   824                           ;incstack = 0
   825  001AF0  ECEC  F00F         	call	_initCDC	;wreg free
   826                           
   827                           ;main.c: 35: SetupBoard();
   828  001AF4  EC7E  F011         	call	_SetupBoard	;wreg free
   829                           
   830                           ;main.c: 36: usb_init(cdc_device_descriptor, cdc_config_descriptor, cdc_str_descs, 4u);
   831  001AF8  0E08               	movlw	high _cdc_device_descriptor
   832  001AFA  6E08               	movwf	?_usb_init+1,c
   833  001AFC  0E9A               	movlw	low _cdc_device_descriptor
   834  001AFE  6E07               	movwf	?_usb_init,c
   835  001B00  0E08               	movlw	high _cdc_config_descriptor
   836  001B02  6E0A               	movwf	?_usb_init+3,c
   837  001B04  0E57               	movlw	low _cdc_config_descriptor
   838  001B06  6E09               	movwf	?_usb_init+2,c
   839  001B08  0E08               	movlw	high _cdc_str_descs
   840  001B0A  6E0C               	movwf	?_usb_init+5,c
   841  001B0C  0E05               	movlw	low _cdc_str_descs
   842  001B0E  6E0B               	movwf	?_usb_init+4,c
   843  001B10  0E00               	movlw	0
   844  001B12  6E0E               	movwf	?_usb_init+7,c
   845  001B14  0E04               	movlw	4
   846  001B16  6E0D               	movwf	?_usb_init+6,c
   847  001B18  EC53  F00E         	call	_usb_init	;wreg free
   848                           
   849                           ;main.c: 37: usb_start();
   850  001B1C  EC76  F011         	call	_usb_start	;wreg free
   851                           
   852                           ;main.c: 55: TRISBbits.TRISB4 = 0;
   853  001B20  9893               	bcf	3987,4,c	;volatile
   854                           
   855                           ;main.c: 56: PORTBbits.RB4 = 1;
   856  001B22  8881               	bsf	3969,4,c	;volatile
   857                           
   858                           ;main.c: 59: {
   859                           ;main.c: 60: Delay10KTCYx(1200);
   860  001B24  6E2D               	movwf	??_main& (0+255),c
   861  001B26  0EB0               	movlw	176
   862  001B28  6E01               	movwf	?_Delay10KTCYx,c
   863  001B2A  502D               	movf	??_main& (0+255),w,c
   864  001B2C  EC41  F011         	call	_Delay10KTCYx	;wreg free
   865                           
   866                           ;main.c: 61: PORTBbits.RB4 = !PORTBbits.RB4;
   867  001B30  B881               	btfsc	3969,4,c	;volatile
   868  001B32  D002               	goto	u1910
   869  001B34  0E01               	movlw	1
   870  001B36  D001               	goto	u1916
   871  001B38                     u1910:
   872  001B38  0E00               	movlw	0
   873  001B3A                     u1916:
   874  001B3A  6E2D               	movwf	??_main& (0+255),c
   875  001B3C  3A2D               	swapf	??_main,f,c
   876  001B3E  5081               	movf	3969,w,c	;volatile
   877  001B40  182D               	xorwf	??_main,w,c
   878  001B42  0BEF               	andlw	-17
   879  001B44  182D               	xorwf	??_main,w,c
   880  001B46  6E81               	movwf	3969,c	;volatile
   881  001B48                     l3095:
   882                           
   883                           ;main.c: 66: usb_handler();
   884  001B48  ECBD  F00F         	call	_usb_handler	;wreg free
   885                           
   886                           ;main.c: 67: } while (usb_device_state < CONFIGURED_STATE);
   887  001B4C  0E1F               	movlw	31
   888  001B4E  645A               	cpfsgt	_usb_device_state,c	;volatile
   889  001B50  D7FB               	goto	l3095
   890                           
   891                           ;main.c: 69: usb_register_sof_handler(CDCFlushOnTimeout);
   892  001B52  0E1F               	movlw	high _CDCFlushOnTimeout
   893  001B54  6E02               	movwf	?_usb_register_sof_handler+1,c
   894  001B56  0E12               	movlw	low _CDCFlushOnTimeout
   895  001B58  6E01               	movwf	?_usb_register_sof_handler,c
   896  001B5A  EC83  F011         	call	_usb_register_sof_handler	;wreg free
   897  001B5E                     l3101:
   898                           
   899                           ;main.c: 73: {
   900                           ;main.c: 74: usb_handler();
   901  001B5E  ECBD  F00F         	call	_usb_handler	;wreg free
   902                           
   903                           ;main.c: 79: if (peek_getc_cdc(&RecvdByte)) {
   904  001B62  0E00               	movlw	high main@RecvdByte
   905  001B64  6E2C               	movwf	?_peek_getc_cdc+1,c
   906  001B66  0E2E               	movlw	low main@RecvdByte
   907  001B68  6E2B               	movwf	?_peek_getc_cdc,c
   908  001B6A  EC62  F010         	call	_peek_getc_cdc	;wreg free
   909  001B6E  0900               	iorlw	0
   910  001B70  B4D8               	btfsc	status,2,c
   911  001B72  D7F5               	goto	l3101
   912                           
   913                           ;main.c: 80: RecvdByte = getc_cdc();
   914  001B74  ECB4  F010         	call	_getc_cdc	;wreg free
   915  001B78  6E2E               	movwf	main@RecvdByte,c
   916                           
   917                           ;main.c: 81: putc_cdc(RecvdByte+1);
   918  001B7A  282E               	incf	main@RecvdByte,w,c
   919  001B7C  6E03               	movwf	?_putc_cdc,c
   920  001B7E  EC18  F010         	call	_putc_cdc	;wreg free
   921                           
   922                           ;main.c: 82: usb_handler();
   923  001B82  ECBD  F00F         	call	_usb_handler	;wreg free
   924  001B86  D7EB               	goto	l3101
   925  001B88                     __end_of_main:
   926                           	opt stack 0
   927                           tblptru	equ	0xFF8
   928                           postinc0	equ	0xFEE
   929                           wreg	equ	0xFE8
   930                           postdec1	equ	0xFE5
   931                           fsr1h	equ	0xFE2
   932                           fsr1l	equ	0xFE1
   933                           status	equ	0xFD8
   934                           
   935 ;; *************** function _Delay10KTCYx *****************
   936 ;; Defined at:
   937 ;;		line 9 in file "C:\Program Files (x86)\Microchip\xc8\v1.21\sources\pic18\d10ktcyx.c"
   938 ;; Parameters:    Size  Location     Type
   939 ;;  unit            1    0[COMRAM] unsigned char 
   940 ;; Auto vars:     Size  Location     Type
   941 ;;		None
   942 ;; Return value:  Size  Location     Type
   943 ;;		None               void
   944 ;; Registers used:
   945 ;;		wreg
   946 ;; Tracked objects:
   947 ;;		On entry : 0/0
   948 ;;		On exit  : 0/0
   949 ;;		Unchanged: 0/0
   950 ;; Data sizes:     COMRAM   BANK0   BANK1   BANK2   BANK3   BANK4   BANK5   BANK6   BANK7
   951 ;;      Params:         1       0       0       0       0       0       0       0       0
   952 ;;      Locals:         0       0       0       0       0       0       0       0       0
   953 ;;      Temps:          1       0       0       0       0       0       0       0       0
   954 ;;      Totals:         2       0       0       0       0       0       0       0       0
   955 ;;Total ram usage:        2 bytes
   956 ;; Hardware stack levels used:    1
   957 ;; This function calls:
   958 ;;		Nothing
   959 ;; This function is called by:
   960 ;;		_main
   961 ;; This function uses a non-reentrant model
   962 ;;
   963                           
   964                           	psect	text1
   965  002282                     __ptext1:
   966                           	opt stack 0
   967  002282                     _Delay10KTCYx:
   968                           	opt stack 29
   969  002282                     l753:
   970  002282  0E0D               	movlw	13
   971  002284  6E02               	movwf	??_Delay10KTCYx& (0+255),c
   972  002286  0EFB               	movlw	251
   973  002288                     u1947:
   974  002288  2EE8               	decfsz	wreg,f,c
   975  00228A  D7FE               	goto	u1947
   976  00228C  2E02               	decfsz	??_Delay10KTCYx& (0+255),f,c
   977  00228E  D7FC               	goto	u1947
   978  002290  D000               	nop2	
   979  002292  2E01               	decfsz	Delay10KTCYx@unit,f,c
   980  002294  D7F6               	goto	l753
   981  002296  0012               	return	
   982  002298                     __end_of_Delay10KTCYx:
   983                           	opt stack 0
   984                           tblptru	equ	0xFF8
   985                           postinc0	equ	0xFEE
   986                           wreg	equ	0xFE8
   987                           postdec1	equ	0xFE5
   988                           fsr1h	equ	0xFE2
   989                           fsr1l	equ	0xFE1
   990                           status	equ	0xFD8
   991                           
   992 ;; *************** function _SetupBoard *****************
   993 ;; Defined at:
   994 ;;		line 93 in file "main.c"
   995 ;; Parameters:    Size  Location     Type
   996 ;;		None
   997 ;; Auto vars:     Size  Location     Type
   998 ;;		None
   999 ;; Return value:  Size  Location     Type
  1000 ;;		None               void
  1001 ;; Registers used:
  1002 ;;		wreg, status,2, status,0
  1003 ;; Tracked objects:
  1004 ;;		On entry : 0/0
  1005 ;;		On exit  : 0/0
  1006 ;;		Unchanged: 0/0
  1007 ;; Data sizes:     COMRAM   BANK0   BANK1   BANK2   BANK3   BANK4   BANK5   BANK6   BANK7
  1008 ;;      Params:         0       0       0       0       0       0       0       0       0
  1009 ;;      Locals:         0       0       0       0       0       0       0       0       0
  1010 ;;      Temps:          0       0       0       0       0       0       0       0       0
  1011 ;;      Totals:         0       0       0       0       0       0       0       0       0
  1012 ;;Total ram usage:        0 bytes
  1013 ;; Hardware stack levels used:    1
  1014 ;; This function calls:
  1015 ;;		Nothing
  1016 ;; This function is called by:
  1017 ;;		_main
  1018 ;; This function uses a non-reentrant model
  1019 ;;
  1020                           
  1021                           	psect	text2
  1022  0022FC                     __ptext2:
  1023                           	opt stack 0
  1024  0022FC                     _SetupBoard:
  1025                           	opt stack 29
  1026                           
  1027                           ;main.c: 95: ADCON1 |= 0b1111;
  1028                           
  1029                           ;incstack = 0
  1030                           ;incstack = 0
  1031  0022FC  0E0F               	movlw	15
  1032  0022FE  12C1               	iorwf	4033,f,c	;volatile
  1033                           
  1034                           ;main.c: 96: CVRCON = 0b00000000;
  1035  002300  0E00               	movlw	0
  1036  002302  6EB5               	movwf	4021,c	;volatile
  1037  002304  0012               	return	
  1038  002306                     __end_of_SetupBoard:
  1039                           	opt stack 0
  1040                           tblptru	equ	0xFF8
  1041                           postinc0	equ	0xFEE
  1042                           wreg	equ	0xFE8
  1043                           postdec1	equ	0xFE5
  1044                           fsr1h	equ	0xFE2
  1045                           fsr1l	equ	0xFE1
  1046                           status	equ	0xFD8
  1047                           
  1048 ;; *************** function _usb_register_sof_handler *****************
  1049 ;; Defined at:
  1050 ;;		line 521 in file "../dp_usb/usb_stack.c"
  1051 ;; Parameters:    Size  Location     Type
  1052 ;;  handler         2    0[COMRAM] PTR FTN()void 
  1053 ;;		 -> CDCFlushOnTimeout(0), 
  1054 ;; Auto vars:     Size  Location     Type
  1055 ;;		None
  1056 ;; Return value:  Size  Location     Type
  1057 ;;		None               void
  1058 ;; Registers used:
  1059 ;;		None
  1060 ;; Tracked objects:
  1061 ;;		On entry : 0/0
  1062 ;;		On exit  : 0/0
  1063 ;;		Unchanged: 0/0
  1064 ;; Data sizes:     COMRAM   BANK0   BANK1   BANK2   BANK3   BANK4   BANK5   BANK6   BANK7
  1065 ;;      Params:         2       0       0       0       0       0       0       0       0
  1066 ;;      Locals:         0       0       0       0       0       0       0       0       0
  1067 ;;      Temps:          0       0       0       0       0       0       0       0       0
  1068 ;;      Totals:         2       0       0       0       0       0       0       0       0
  1069 ;;Total ram usage:        2 bytes
  1070 ;; Hardware stack levels used:    1
  1071 ;; This function calls:
  1072 ;;		Nothing
  1073 ;; This function is called by:
  1074 ;;		_main
  1075 ;; This function uses a non-reentrant model
  1076 ;;
  1077                           
  1078                           	psect	text3
  1079  002306                     __ptext3:
  1080                           	opt stack 0
  1081  002306                     _usb_register_sof_handler:
  1082                           	opt stack 29
  1083                           
  1084                           ;usb_stack.c: 522: sof_handler = handler;
  1085                           
  1086                           ;incstack = 0
  1087                           ;incstack = 0
  1088  002306  C001  F03E         	movff	usb_register_sof_handler@handler,_sof_handler
  1089  00230A  C002  F03F         	movff	usb_register_sof_handler@handler+1,_sof_handler+1
  1090  00230E  0012               	return	
  1091  002310                     __end_of_usb_register_sof_handler:
  1092                           	opt stack 0
  1093                           tblptru	equ	0xFF8
  1094                           postinc0	equ	0xFEE
  1095                           wreg	equ	0xFE8
  1096                           postdec1	equ	0xFE5
  1097                           fsr1h	equ	0xFE2
  1098                           fsr1l	equ	0xFE1
  1099                           status	equ	0xFD8
  1100                           
  1101 ;; *************** function _usb_start *****************
  1102 ;; Defined at:
  1103 ;;		line 109 in file "../dp_usb/usb_stack.c"
  1104 ;; Parameters:    Size  Location     Type
  1105 ;;		None
  1106 ;; Auto vars:     Size  Location     Type
  1107 ;;		None
  1108 ;; Return value:  Size  Location     Type
  1109 ;;		None               void
  1110 ;; Registers used:
  1111 ;;		wreg, status,2
  1112 ;; Tracked objects:
  1113 ;;		On entry : 0/0
  1114 ;;		On exit  : 0/0
  1115 ;;		Unchanged: 0/0
  1116 ;; Data sizes:     COMRAM   BANK0   BANK1   BANK2   BANK3   BANK4   BANK5   BANK6   BANK7
  1117 ;;      Params:         0       0       0       0       0       0       0       0       0
  1118 ;;      Locals:         0       0       0       0       0       0       0       0       0
  1119 ;;      Temps:          0       0       0       0       0       0       0       0       0
  1120 ;;      Totals:         0       0       0       0       0       0       0       0       0
  1121 ;;Total ram usage:        0 bytes
  1122 ;; Hardware stack levels used:    1
  1123 ;; This function calls:
  1124 ;;		Nothing
  1125 ;; This function is called by:
  1126 ;;		_main
  1127 ;; This function uses a non-reentrant model
  1128 ;;
  1129                           
  1130                           	psect	text4
  1131  0022EC                     __ptext4:
  1132                           	opt stack 0
  1133  0022EC                     _usb_start:
  1134                           	opt stack 29
  1135                           
  1136                           ;usb_stack.c: 110: UCONbits.USBEN = 1;
  1137                           
  1138                           ;incstack = 0
  1139                           ;incstack = 0
  1140  0022EC  866D               	bsf	3949,3,c	;volatile
  1141                           
  1142                           ;usb_stack.c: 111: usb_device_state = ATTACHED_STATE;
  1143  0022EE  0E01               	movlw	1
  1144  0022F0  6E5A               	movwf	_usb_device_state,c	;volatile
  1145  0022F2                     l297:
  1146  0022F2  BA6D               	btfsc	3949,5,c	;volatile
  1147  0022F4  D7FE               	goto	l297
  1148                           
  1149                           ;usb_stack.c: 113: usb_device_state = DEFAULT_STATE;
  1150  0022F6  0E04               	movlw	4
  1151  0022F8  6E5A               	movwf	_usb_device_state,c	;volatile
  1152  0022FA  0012               	return	
  1153  0022FC                     __end_of_usb_start:
  1154                           	opt stack 0
  1155                           tblptru	equ	0xFF8
  1156                           postinc0	equ	0xFEE
  1157                           wreg	equ	0xFE8
  1158                           postdec1	equ	0xFE5
  1159                           fsr1h	equ	0xFE2
  1160                           fsr1l	equ	0xFE1
  1161                           status	equ	0xFD8
  1162                           
  1163 ;; *************** function _usb_init *****************
  1164 ;; Defined at:
  1165 ;;		line 93 in file "../dp_usb/usb_stack.c"
  1166 ;; Parameters:    Size  Location     Type
  1167 ;;  device_descr    2    6[COMRAM] PTR const unsigned char 
  1168 ;;		 -> cdc_device_descriptor(18), 
  1169 ;;  config_descr    2    8[COMRAM] PTR const unsigned char 
  1170 ;;		 -> cdc_config_descriptor(67), 
  1171 ;;  string_descr    2   10[COMRAM] PTR const unsigned char 
  1172 ;;		 -> cdc_str_descs(82), 
  1173 ;;  num_string_d    2   12[COMRAM] int 
  1174 ;; Auto vars:     Size  Location     Type
  1175 ;;		None
  1176 ;; Return value:  Size  Location     Type
  1177 ;;		None               void
  1178 ;; Registers used:
  1179 ;;		wreg, fsr2l, fsr2h, status,2, status,0, cstack
  1180 ;; Tracked objects:
  1181 ;;		On entry : 0/0
  1182 ;;		On exit  : 0/0
  1183 ;;		Unchanged: 0/0
  1184 ;; Data sizes:     COMRAM   BANK0   BANK1   BANK2   BANK3   BANK4   BANK5   BANK6   BANK7
  1185 ;;      Params:         8       0       0       0       0       0       0       0       0
  1186 ;;      Locals:         0       0       0       0       0       0       0       0       0
  1187 ;;      Temps:          0       0       0       0       0       0       0       0       0
  1188 ;;      Totals:         8       0       0       0       0       0       0       0       0
  1189 ;;Total ram usage:        8 bytes
  1190 ;; Hardware stack levels used:    1
  1191 ;; Hardware stack levels required when called:    1
  1192 ;; This function calls:
  1193 ;;		_usb_set_in_handler
  1194 ;;		_usb_set_out_handler
  1195 ;;		_ClearUSBtoDefault
  1196 ;; This function is called by:
  1197 ;;		_main
  1198 ;; This function uses a non-reentrant model
  1199 ;;
  1200                           
  1201                           	psect	text5
  1202  001CA6                     __ptext5:
  1203                           	opt stack 0
  1204  001CA6                     _usb_init:
  1205                           	opt stack 28
  1206                           
  1207                           ;usb_stack.c: 95: usb_device_descriptor = device_descriptor;
  1208                           
  1209                           ;incstack = 0
  1210                           ;incstack = 0
  1211  001CA6  C007  F05C         	movff	usb_init@device_descriptor,_usb_device_descriptor
  1212  001CAA  C008  F05D         	movff	usb_init@device_descriptor+1,_usb_device_descriptor+1
  1213  001CAE  6A5E               	clrf	_usb_device_descriptor+2,c
  1214                           
  1215                           ;usb_stack.c: 96: usb_config_descriptor = config_descriptor;
  1216  001CB0  0100               	movlb	0	; () banked
  1217  001CB2  C009  F0D4         	movff	usb_init@config_descriptor,_usb_config_descriptor
  1218  001CB6  0100               	movlb	0	; () banked
  1219  001CB8  C00A  F0D5         	movff	usb_init@config_descriptor+1,_usb_config_descriptor+1
  1220  001CBC  0100               	movlb	0	; () banked
  1221  001CBE  0100               	movlb	0	; () banked
  1222  001CC0  6BD6               	clrf	(_usb_config_descriptor+2)& (0+255),b
  1223                           
  1224                           ;usb_stack.c: 97: usb_string_descriptor = string_descriptor;
  1225  001CC2  0100               	movlb	0	; () banked
  1226  001CC4  C00B  F0D7         	movff	usb_init@string_descriptor,_usb_string_descriptor
  1227  001CC8  0100               	movlb	0	; () banked
  1228  001CCA  C00C  F0D8         	movff	usb_init@string_descriptor+1,_usb_string_descriptor+1
  1229  001CCE  0100               	movlb	0	; () banked
  1230  001CD0  0100               	movlb	0	; () banked
  1231  001CD2  6BD9               	clrf	(_usb_string_descriptor+2)& (0+255),b
  1232                           
  1233                           ;usb_stack.c: 98: usb_num_string_descriptors = num_string_descriptors;
  1234  001CD4  C00D  F0DC         	movff	usb_init@num_string_descriptors,_usb_num_string_descriptors
  1235  001CD8  C00E  F0DD         	movff	usb_init@num_string_descriptors+1,_usb_num_string_descriptors+1
  1236                           
  1237                           ; BSR set to: 0
  1238                           ;usb_stack.c: 99: sof_handler = (0);
  1239  001CDC  0E00               	movlw	0
  1240  001CDE  6E3F               	movwf	_sof_handler+1,c
  1241  001CE0  0E00               	movlw	0
  1242  001CE2  6E3E               	movwf	_sof_handler,c
  1243                           
  1244                           ;usb_stack.c: 100: class_setup_handler = (0);
  1245  001CE4  0E00               	movlw	0
  1246  001CE6  0100               	movlb	0	; () banked
  1247  001CE8  0100               	movlb	0	; () banked
  1248  001CEA  6FDB               	movwf	(_class_setup_handler+1)& (0+255),b
  1249  001CEC  0E00               	movlw	0
  1250  001CEE  0100               	movlb	0	; () banked
  1251  001CF0  6FDA               	movwf	_class_setup_handler& (0+255),b
  1252                           
  1253                           ;usb_stack.c: 101: vendor_setup_handler = (0);
  1254  001CF2  0E00               	movlw	0
  1255  001CF4  6E47               	movwf	_vendor_setup_handler+1,c
  1256  001CF6  0E00               	movlw	0
  1257  001CF8  6E46               	movwf	_vendor_setup_handler,c
  1258                           
  1259                           ; BSR set to: 0
  1260                           ;usb_stack.c: 102: usb_set_in_handler(0, (usb_handler_t) 0);
  1261  001CFA  0E00               	movlw	0
  1262  001CFC  6E02               	movwf	?_usb_set_in_handler+1,c
  1263  001CFE  0E00               	movlw	0
  1264  001D00  6E01               	movwf	?_usb_set_in_handler,c
  1265  001D02  0E00               	movlw	0
  1266  001D04  6E04               	movwf	?_usb_set_in_handler+3,c
  1267  001D06  0E00               	movlw	0
  1268  001D08  6E03               	movwf	?_usb_set_in_handler+2,c
  1269  001D0A  ECCB  F010         	call	_usb_set_in_handler	;wreg free
  1270                           
  1271                           ;usb_stack.c: 103: usb_set_out_handler(0, (usb_handler_t) 0);
  1272  001D0E  0E00               	movlw	0
  1273  001D10  6E02               	movwf	?_usb_set_out_handler+1,c
  1274  001D12  0E00               	movlw	0
  1275  001D14  6E01               	movwf	?_usb_set_out_handler,c
  1276  001D16  0E00               	movlw	0
  1277  001D18  6E04               	movwf	?_usb_set_out_handler+3,c
  1278  001D1A  0E00               	movlw	0
  1279  001D1C  6E03               	movwf	?_usb_set_out_handler+2,c
  1280  001D1E  EC99  F010         	call	_usb_set_out_handler	;wreg free
  1281                           
  1282                           ;usb_stack.c: 104: ClearUSBtoDefault();
  1283  001D22  ECE9  F009         	call	_ClearUSBtoDefault	;wreg free
  1284                           
  1285                           ;usb_stack.c: 105: do {UCFG = (((1<<4)) | ((0)) | ((1<<2)) | (0));} while(0);
  1286  001D26  0E14               	movlw	20
  1287  001D28  6E6F               	movwf	3951,c	;volatile
  1288                           
  1289                           ;usb_stack.c: 106: UCONbits.PKTDIS = 0;
  1290  001D2A  986D               	bcf	3949,4,c	;volatile
  1291  001D2C  0012               	return	
  1292  001D2E                     __end_of_usb_init:
  1293                           	opt stack 0
  1294                           tblptru	equ	0xFF8
  1295                           postinc0	equ	0xFEE
  1296                           wreg	equ	0xFE8
  1297                           postdec1	equ	0xFE5
  1298                           fsr1h	equ	0xFE2
  1299                           fsr1l	equ	0xFE1
  1300                           status	equ	0xFD8
  1301                           
  1302 ;; *************** function _peek_getc_cdc *****************
  1303 ;; Defined at:
  1304 ;;		line 419 in file "../dp_usb/cdc.c"
  1305 ;; Parameters:    Size  Location     Type
  1306 ;;  c               2   42[COMRAM] PTR unsigned char 
  1307 ;;		 -> main@RecvdByte(1), 
  1308 ;; Auto vars:     Size  Location     Type
  1309 ;;		None
  1310 ;; Return value:  Size  Location     Type
  1311 ;;                  1    wreg      unsigned char 
  1312 ;; Registers used:
  1313 ;;		wreg, fsr1l, fsr1h, fsr2l, fsr2h, status,2, status,0, pclat, tosl, tblptrl, tblptrh, tblptru, prodl, prodh, cstack
  1314 ;; Tracked objects:
  1315 ;;		On entry : 0/0
  1316 ;;		On exit  : 0/0
  1317 ;;		Unchanged: 0/0
  1318 ;; Data sizes:     COMRAM   BANK0   BANK1   BANK2   BANK3   BANK4   BANK5   BANK6   BANK7
  1319 ;;      Params:         2       0       0       0       0       0       0       0       0
  1320 ;;      Locals:         0       0       0       0       0       0       0       0       0
  1321 ;;      Temps:          0       0       0       0       0       0       0       0       0
  1322 ;;      Totals:         2       0       0       0       0       0       0       0       0
  1323 ;;Total ram usage:        2 bytes
  1324 ;; Hardware stack levels used:    1
  1325 ;; Hardware stack levels required when called:    7
  1326 ;; This function calls:
  1327 ;;		_getOutReady
  1328 ;;		_getda_cdc
  1329 ;; This function is called by:
  1330 ;;		_main
  1331 ;; This function uses a non-reentrant model
  1332 ;;
  1333                           
  1334                           	psect	text6
  1335  0020C4                     __ptext6:
  1336                           	opt stack 0
  1337  0020C4                     _peek_getc_cdc:
  1338                           	opt stack 22
  1339                           
  1340                           ;cdc.c: 421: if (cdc_Out_len) {
  1341                           
  1342                           ;incstack = 0
  1343                           ;incstack = 0
  1344  0020C4  5053               	movf	_cdc_Out_len,w,c	;volatile
  1345  0020C6  A4D8               	btfss	status,2,c
  1346  0020C8  D00B               	goto	u1900
  1347                           
  1348                           ;cdc.c: 424: }
  1349                           ;cdc.c: 425: if (getOutReady()) {
  1350                           
  1351                           ;cdc.c: 423: return 1;
  1352                           
  1353                           ;cdc.c: 422: *c = *OutPtr;
  1354  0020CA  EC29  F011         	call	_getOutReady	;wreg free
  1355  0020CE  0900               	iorlw	0
  1356  0020D0  B4D8               	btfsc	status,2,c
  1357  0020D2  D012               	goto	l3075
  1358                           
  1359                           ;cdc.c: 426: cdc_Out_len = getda_cdc();
  1360  0020D4  EC29  F00D         	call	_getda_cdc	;wreg free
  1361  0020D8  6E53               	movwf	_cdc_Out_len,c	;volatile
  1362                           
  1363                           ;cdc.c: 427: if (cdc_Out_len) {
  1364  0020DA  5053               	movf	_cdc_Out_len,w,c	;volatile
  1365  0020DC  B4D8               	btfsc	status,2,c
  1366  0020DE  D00C               	goto	l3075
  1367  0020E0                     u1900:
  1368                           
  1369                           ;cdc.c: 428: *c = *OutPtr;
  1370  0020E0  C03C  FFD9         	movff	_OutPtr,fsr2l
  1371  0020E4  C03D  FFDA         	movff	_OutPtr+1,fsr2h
  1372  0020E8  C02B  FFE1         	movff	peek_getc_cdc@c,fsr1l
  1373  0020EC  C02C  FFE2         	movff	peek_getc_cdc@c+1,fsr1h
  1374  0020F0  CFDF FFE7          	movff	indf2,indf1
  1375                           
  1376                           ;cdc.c: 429: return 1;
  1377  0020F4  0E01               	movlw	1
  1378  0020F6  D001               	goto	l195
  1379  0020F8                     l3075:
  1380                           
  1381                           ;cdc.c: 430: }
  1382                           ;cdc.c: 431: }
  1383                           ;cdc.c: 432: return 0;
  1384  0020F8  0E00               	movlw	0
  1385  0020FA                     l195:
  1386  0020FA  0012               	return	
  1387  0020FC                     __end_of_peek_getc_cdc:
  1388                           	opt stack 0
  1389                           tblptru	equ	0xFF8
  1390                           postinc0	equ	0xFEE
  1391                           wreg	equ	0xFE8
  1392                           indf1	equ	0xFE7
  1393                           postdec1	equ	0xFE5
  1394                           fsr1h	equ	0xFE2
  1395                           fsr1l	equ	0xFE1
  1396                           indf2	equ	0xFDF
  1397                           fsr2h	equ	0xFDA
  1398                           fsr2l	equ	0xFD9
  1399                           status	equ	0xFD8
  1400                           
  1401 ;; *************** function _getOutReady *****************
  1402 ;; Defined at:
  1403 ;;		line 248 in file "../dp_usb/cdc.c"
  1404 ;; Parameters:    Size  Location     Type
  1405 ;;		None
  1406 ;; Auto vars:     Size  Location     Type
  1407 ;;		None
  1408 ;; Return value:  Size  Location     Type
  1409 ;;                  1    wreg      unsigned char 
  1410 ;; Registers used:
  1411 ;;		wreg, fsr2l, fsr2h, status,2, status,0
  1412 ;; Tracked objects:
  1413 ;;		On entry : 0/0
  1414 ;;		On exit  : 0/0
  1415 ;;		Unchanged: 0/0
  1416 ;; Data sizes:     COMRAM   BANK0   BANK1   BANK2   BANK3   BANK4   BANK5   BANK6   BANK7
  1417 ;;      Params:         0       0       0       0       0       0       0       0       0
  1418 ;;      Locals:         0       0       0       0       0       0       0       0       0
  1419 ;;      Temps:          1       0       0       0       0       0       0       0       0
  1420 ;;      Totals:         1       0       0       0       0       0       0       0       0
  1421 ;;Total ram usage:        1 bytes
  1422 ;; Hardware stack levels used:    1
  1423 ;; This function calls:
  1424 ;;		Nothing
  1425 ;; This function is called by:
  1426 ;;		_peek_getc_cdc
  1427 ;;		_poll_getc_cdc
  1428 ;; This function uses a non-reentrant model
  1429 ;;
  1430                           
  1431                           	psect	text7
  1432  002252                     __ptext7:
  1433                           	opt stack 0
  1434  002252                     _getOutReady:
  1435                           	opt stack 28
  1436                           
  1437                           ;cdc.c: 250: return !(CDC_Outbdp->BDSTAT & 0x80);
  1438                           
  1439                           ;incstack = 0
  1440                           ;incstack = 0
  1441  002252  C034  FFD9         	movff	_CDC_Outbdp,fsr2l
  1442  002256  C035  FFDA         	movff	_CDC_Outbdp+1,fsr2h
  1443  00225A  50DF               	movf	indf2,w,c
  1444  00225C  6E01               	movwf	??_getOutReady& (0+255),c
  1445  00225E  BE01               	btfsc	??_getOutReady,7,c
  1446  002260  D002               	goto	u1010
  1447  002262  0E01               	movlw	1
  1448  002264  D001               	goto	l136
  1449  002266                     u1010:
  1450  002266  0E00               	movlw	0
  1451  002268                     l136:
  1452  002268  0012               	return	
  1453  00226A                     __end_of_getOutReady:
  1454                           	opt stack 0
  1455                           tblptru	equ	0xFF8
  1456                           postinc0	equ	0xFEE
  1457                           wreg	equ	0xFE8
  1458                           indf1	equ	0xFE7
  1459                           postdec1	equ	0xFE5
  1460                           fsr1h	equ	0xFE2
  1461                           fsr1l	equ	0xFE1
  1462                           indf2	equ	0xFDF
  1463                           fsr2h	equ	0xFDA
  1464                           fsr2l	equ	0xFD9
  1465                           status	equ	0xFD8
  1466                           
  1467 ;; *************** function _getc_cdc *****************
  1468 ;; Defined at:
  1469 ;;		line 370 in file "../dp_usb/cdc.c"
  1470 ;; Parameters:    Size  Location     Type
  1471 ;;		None
  1472 ;; Auto vars:     Size  Location     Type
  1473 ;;  c               1   43[COMRAM] unsigned char 
  1474 ;; Return value:  Size  Location     Type
  1475 ;;                  1    wreg      unsigned char 
  1476 ;; Registers used:
  1477 ;;		wreg, fsr1l, fsr1h, fsr2l, fsr2h, status,2, status,0, pclat, tosl, tblptrl, tblptrh, tblptru, prodl, prodh, cstack
  1478 ;; Tracked objects:
  1479 ;;		On entry : 0/0
  1480 ;;		On exit  : 0/0
  1481 ;;		Unchanged: 0/0
  1482 ;; Data sizes:     COMRAM   BANK0   BANK1   BANK2   BANK3   BANK4   BANK5   BANK6   BANK7
  1483 ;;      Params:         0       0       0       0       0       0       0       0       0
  1484 ;;      Locals:         1       0       0       0       0       0       0       0       0
  1485 ;;      Temps:          1       0       0       0       0       0       0       0       0
  1486 ;;      Totals:         2       0       0       0       0       0       0       0       0
  1487 ;;Total ram usage:        2 bytes
  1488 ;; Hardware stack levels used:    1
  1489 ;; Hardware stack levels required when called:    7
  1490 ;; This function calls:
  1491 ;;		_getda_cdc
  1492 ;; This function is called by:
  1493 ;;		_main
  1494 ;; This function uses a non-reentrant model
  1495 ;;
  1496                           
  1497                           	psect	text8
  1498  002168                     __ptext8:
  1499                           	opt stack 0
  1500  002168                     _getc_cdc:
  1501                           	opt stack 22
  1502                           
  1503                           ;cdc.c: 371: BYTE c = 0;
  1504                           
  1505                           ;incstack = 0
  1506                           ;incstack = 0
  1507  002168  6E2B               	movwf	??_getc_cdc& (0+255),c
  1508  00216A  0E00               	movlw	0
  1509  00216C  6E2C               	movwf	getc_cdc@c,c
  1510  00216E  502B               	movf	??_getc_cdc& (0+255),w,c
  1511                           
  1512                           ;cdc.c: 373: if (cdc_Out_len == 0) {
  1513  002170  6653               	tstfsz	_cdc_Out_len,c	;volatile
  1514  002172  D006               	goto	l3045
  1515  002174                     l3041:
  1516                           
  1517                           ;cdc.c: 375: cdc_Out_len = getda_cdc();
  1518  002174  EC29  F00D         	call	_getda_cdc	;wreg free
  1519  002178  6E53               	movwf	_cdc_Out_len,c	;volatile
  1520                           
  1521                           ;cdc.c: 376: } while (cdc_Out_len == 0);
  1522  00217A  5053               	movf	_cdc_Out_len,w,c	;volatile
  1523  00217C  B4D8               	btfsc	status,2,c
  1524  00217E  D7FA               	goto	l3041
  1525  002180                     l3045:
  1526                           
  1527                           ;cdc.c: 377: }
  1528                           ;cdc.c: 378: c = *OutPtr;
  1529  002180  C03C  FFD9         	movff	_OutPtr,fsr2l
  1530  002184  C03D  FFDA         	movff	_OutPtr+1,fsr2h
  1531  002188  50DF               	movf	indf2,w,c
  1532  00218A  6E2C               	movwf	getc_cdc@c,c
  1533                           
  1534                           ;cdc.c: 379: OutPtr++;
  1535  00218C  4A3C               	infsnz	_OutPtr,f,c
  1536  00218E  2A3D               	incf	_OutPtr+1,f,c
  1537                           
  1538                           ;cdc.c: 380: cdc_Out_len--;
  1539  002190  0653               	decf	_cdc_Out_len,f,c	;volatile
  1540                           
  1541                           ;cdc.c: 381: return c;
  1542  002192  502C               	movf	getc_cdc@c,w,c
  1543  002194  0012               	return	
  1544  002196                     __end_of_getc_cdc:
  1545                           	opt stack 0
  1546                           tblptru	equ	0xFF8
  1547                           postinc0	equ	0xFEE
  1548                           wreg	equ	0xFE8
  1549                           indf1	equ	0xFE7
  1550                           postdec1	equ	0xFE5
  1551                           fsr1h	equ	0xFE2
  1552                           fsr1l	equ	0xFE1
  1553                           indf2	equ	0xFDF
  1554                           fsr2h	equ	0xFDA
  1555                           fsr2l	equ	0xFD9
  1556                           status	equ	0xFD8
  1557                           
  1558 ;; *************** function _getda_cdc *****************
  1559 ;; Defined at:
  1560 ;;		line 260 in file "../dp_usb/cdc.c"
  1561 ;; Parameters:    Size  Location     Type
  1562 ;;		None
  1563 ;; Auto vars:     Size  Location     Type
  1564 ;;		None
  1565 ;; Return value:  Size  Location     Type
  1566 ;;                  1    wreg      unsigned char 
  1567 ;; Registers used:
  1568 ;;		wreg, fsr1l, fsr1h, fsr2l, fsr2h, status,2, status,0, pclat, tosl, tblptrl, tblptrh, tblptru, prodl, prodh, cstack
  1569 ;; Tracked objects:
  1570 ;;		On entry : 0/0
  1571 ;;		On exit  : 0/0
  1572 ;;		Unchanged: 0/0
  1573 ;; Data sizes:     COMRAM   BANK0   BANK1   BANK2   BANK3   BANK4   BANK5   BANK6   BANK7
  1574 ;;      Params:         0       0       0       0       0       0       0       0       0
  1575 ;;      Locals:         0       0       0       0       0       0       0       0       0
  1576 ;;      Temps:          1       0       0       0       0       0       0       0       0
  1577 ;;      Totals:         1       0       0       0       0       0       0       0       0
  1578 ;;Total ram usage:        1 bytes
  1579 ;; Hardware stack levels used:    1
  1580 ;; Hardware stack levels required when called:    6
  1581 ;; This function calls:
  1582 ;;		_WaitOutReady
  1583 ;;		_usb_handler
  1584 ;; This function is called by:
  1585 ;;		_getc_cdc
  1586 ;;		_peek_getc_cdc
  1587 ;;		_poll_getc_cdc
  1588 ;; This function uses a non-reentrant model
  1589 ;;
  1590                           
  1591                           	psect	text9
  1592  001A52                     __ptext9:
  1593                           	opt stack 0
  1594  001A52                     _getda_cdc:
  1595                           	opt stack 22
  1596                           
  1597                           ;cdc.c: 262: CDCFunctionError = 0;
  1598                           
  1599                           ;incstack = 0
  1600                           ;incstack = 0
  1601  001A52  6E2A               	movwf	??_getda_cdc& (0+255),c
  1602  001A54  0E00               	movlw	0
  1603  001A56  6E48               	movwf	_CDCFunctionError,c
  1604  001A58  502A               	movf	??_getda_cdc& (0+255),w,c
  1605                           
  1606                           ;cdc.c: 264: WaitOutReady();
  1607  001A5A  EC6D  F011         	call	_WaitOutReady	;wreg free
  1608                           
  1609                           ;cdc.c: 266: if ((IsOutBufferA & 1)) {
  1610  001A5E  A04B               	btfss	_IsOutBufferA,0,c
  1611  001A60  D012               	goto	l3019
  1612                           
  1613                           ;cdc.c: 267: OutPtr = &cdc_Out_bufferA[0];
  1614  001A62  0101               	movlb	1	; () banked
  1615  001A64  0E01               	movlw	high _cdc_Out_bufferA
  1616  001A66  6E3D               	movwf	_OutPtr+1,c
  1617  001A68  0101               	movlb	1	; () banked
  1618  001A6A  0E80               	movlw	low _cdc_Out_bufferA
  1619  001A6C  6E3C               	movwf	_OutPtr,c
  1620                           
  1621                           ; BSR set to: 1
  1622                           ;cdc.c: 268: CDC_Outbdp->BDADDR = &cdc_Out_bufferB[0];
  1623  001A6E  EE20 F002          	lfsr	2,2
  1624  001A72  5034               	movf	_CDC_Outbdp,w,c
  1625  001A74  26D9               	addwf	fsr2l,f,c
  1626  001A76  5035               	movf	_CDC_Outbdp+1,w,c
  1627  001A78  22DA               	addwfc	fsr2h,f,c
  1628  001A7A  0101               	movlb	1	; () banked
  1629  001A7C  0EC0               	movlw	low _cdc_Out_bufferB
  1630  001A7E  6EDE               	movwf	postinc2,c
  1631  001A80  0101               	movlb	1	; () banked
  1632  001A82  0E01               	movlw	high _cdc_Out_bufferB
  1633  001A84  D011               	goto	L1
  1634  001A86                     l3019:
  1635                           
  1636                           ;cdc.c: 270: OutPtr = &cdc_Out_bufferB[0];
  1637  001A86  0101               	movlb	1	; () banked
  1638  001A88  0E01               	movlw	high _cdc_Out_bufferB
  1639  001A8A  6E3D               	movwf	_OutPtr+1,c
  1640  001A8C  0101               	movlb	1	; () banked
  1641  001A8E  0EC0               	movlw	low _cdc_Out_bufferB
  1642  001A90  6E3C               	movwf	_OutPtr,c
  1643                           
  1644                           ; BSR set to: 1
  1645                           ;cdc.c: 271: CDC_Outbdp->BDADDR = &cdc_Out_bufferA[0];
  1646  001A92  EE20 F002          	lfsr	2,2
  1647  001A96  5034               	movf	_CDC_Outbdp,w,c
  1648  001A98  26D9               	addwf	fsr2l,f,c
  1649  001A9A  5035               	movf	_CDC_Outbdp+1,w,c
  1650  001A9C  22DA               	addwfc	fsr2h,f,c
  1651  001A9E  0101               	movlb	1	; () banked
  1652  001AA0  0E80               	movlw	low _cdc_Out_bufferA
  1653  001AA2  6EDE               	movwf	postinc2,c
  1654  001AA4  0101               	movlb	1	; () banked
  1655  001AA6  0E01               	movlw	high _cdc_Out_bufferA
  1656  001AA8                     L1:
  1657  001AA8  6EDD               	movwf	postdec2,c
  1658                           
  1659                           ; BSR set to: 1
  1660                           ;cdc.c: 272: }
  1661                           ;cdc.c: 273: IsOutBufferA ^= 0xFF;
  1662                           
  1663                           ; BSR set to: 1
  1664  001AAA  0EFF               	movlw	255
  1665  001AAC  1A4B               	xorwf	_IsOutBufferA,f,c
  1666                           
  1667                           ; BSR set to: 1
  1668                           ;cdc.c: 274: cdc_Out_len = CDC_Outbdp->BDCNT;
  1669  001AAE  EE20 F001          	lfsr	2,1
  1670  001AB2  5034               	movf	_CDC_Outbdp,w,c
  1671  001AB4  26D9               	addwf	fsr2l,f,c
  1672  001AB6  5035               	movf	_CDC_Outbdp+1,w,c
  1673  001AB8  22DA               	addwfc	fsr2h,f,c
  1674  001ABA  50DF               	movf	indf2,w,c
  1675  001ABC  6E53               	movwf	_cdc_Out_len,c	;volatile
  1676                           
  1677                           ; BSR set to: 1
  1678                           ;cdc.c: 275: CDC_Outbdp->BDCNT = 64u;
  1679  001ABE  EE20 F001          	lfsr	2,1
  1680  001AC2  5034               	movf	_CDC_Outbdp,w,c
  1681  001AC4  26D9               	addwf	fsr2l,f,c
  1682  001AC6  5035               	movf	_CDC_Outbdp+1,w,c
  1683  001AC8  22DA               	addwfc	fsr2h,f,c
  1684  001ACA  0E40               	movlw	64
  1685  001ACC  6EDF               	movwf	indf2,c
  1686                           
  1687                           ; BSR set to: 1
  1688                           ;cdc.c: 276: CDC_Outbdp->BDSTAT = ((CDC_Outbdp->BDSTAT ^ 0x40) & 0x40) | 0x80 | 0x08;
  1689  001ACE  C034  FFD9         	movff	_CDC_Outbdp,fsr2l
  1690  001AD2  C035  FFDA         	movff	_CDC_Outbdp+1,fsr2h
  1691  001AD6  50DF               	movf	indf2,w,c
  1692  001AD8  0A40               	xorlw	64
  1693  001ADA  0B40               	andlw	64
  1694  001ADC  0988               	iorlw	136
  1695  001ADE  C034  FFD9         	movff	_CDC_Outbdp,fsr2l
  1696  001AE2  C035  FFDA         	movff	_CDC_Outbdp+1,fsr2h
  1697  001AE6  6EDF               	movwf	indf2,c
  1698                           
  1699                           ; BSR set to: 1
  1700                           ;cdc.c: 278: usb_handler();
  1701  001AE8  ECBD  F00F         	call	_usb_handler	;wreg free
  1702                           
  1703                           ;cdc.c: 280: return cdc_Out_len;
  1704  001AEC  5053               	movf	_cdc_Out_len,w,c	;volatile
  1705  001AEE  0012               	return	
  1706  001AF0                     __end_of_getda_cdc:
  1707                           	opt stack 0
  1708                           tblptru	equ	0xFF8
  1709                           postinc0	equ	0xFEE
  1710                           wreg	equ	0xFE8
  1711                           indf1	equ	0xFE7
  1712                           postdec1	equ	0xFE5
  1713                           fsr1h	equ	0xFE2
  1714                           fsr1l	equ	0xFE1
  1715                           indf2	equ	0xFDF
  1716                           postinc2	equ	0xFDE
  1717                           postdec2	equ	0xFDD
  1718                           fsr2h	equ	0xFDA
  1719                           fsr2l	equ	0xFD9
  1720                           status	equ	0xFD8
  1721                           
  1722 ;; *************** function _usb_handler *****************
  1723 ;; Defined at:
  1724 ;;		line 184 in file "../dp_usb/usb_stack.c"
  1725 ;; Parameters:    Size  Location     Type
  1726 ;;		None
  1727 ;; Auto vars:     Size  Location     Type
  1728 ;;		None
  1729 ;; Return value:  Size  Location     Type
  1730 ;;		None               void
  1731 ;; Registers used:
  1732 ;;		wreg, fsr1l, fsr1h, fsr2l, fsr2h, status,2, status,0, pclat, tosl, tblptrl, tblptrh, tblptru, prodl, prodh, cstack
  1733 ;; Tracked objects:
  1734 ;;		On entry : 0/0
  1735 ;;		On exit  : 0/0
  1736 ;;		Unchanged: 0/0
  1737 ;; Data sizes:     COMRAM   BANK0   BANK1   BANK2   BANK3   BANK4   BANK5   BANK6   BANK7
  1738 ;;      Params:         0       0       0       0       0       0       0       0       0
  1739 ;;      Locals:         0       0       0       0       0       0       0       0       0
  1740 ;;      Temps:          0       0       0       0       0       0       0       0       0
  1741 ;;      Totals:         0       0       0       0       0       0       0       0       0
  1742 ;;Total ram usage:        0 bytes
  1743 ;; Hardware stack levels used:    1
  1744 ;; Hardware stack levels required when called:    5
  1745 ;; This function calls:
  1746 ;;		Absolute function
  1747 ;;		_CDCFlushOnTimeout
  1748 ;;		_usb_handle_reset
  1749 ;;		_USBSuspend
  1750 ;;		_usb_handle_transaction
  1751 ;; This function is called by:
  1752 ;;		_getda_cdc
  1753 ;;		_main
  1754 ;; This function uses a non-reentrant model
  1755 ;;
  1756                           
  1757                           	psect	text10
  1758  001F7A                     __ptext10:
  1759                           	opt stack 0
  1760  001F7A                     _usb_handler:
  1761                           	opt stack 22
  1762                           
  1763                           ;usb_stack.c: 186: if (UIRbits.IDLEIF) {
  1764                           
  1765                           ;incstack = 0
  1766                           ;incstack = 0
  1767  001F7A  A868               	btfss	3944,4,c	;volatile
  1768  001F7C  D003               	goto	l2977
  1769                           
  1770                           ;usb_stack.c: 188: USBSuspend();
  1771  001F7E  EC8D  F011         	call	_USBSuspend	;wreg free
  1772                           
  1773                           ;usb_stack.c: 189: UIR &= ~(0x10);
  1774  001F82  9868               	bcf	3944,4,c	;volatile
  1775  001F84                     l2977:
  1776                           
  1777                           ;usb_stack.c: 190: }
  1778                           ;usb_stack.c: 192: if (UIRbits.URSTIF) {
  1779  001F84  A068               	btfss	3944,0,c	;volatile
  1780  001F86  D003               	goto	l2983
  1781                           
  1782                           ;usb_stack.c: 193: usb_handle_reset();
  1783  001F88  EC09  F011         	call	_usb_handle_reset	;wreg free
  1784                           
  1785                           ;usb_stack.c: 194: UIR &= ~(0x01);
  1786  001F8C  9068               	bcf	3944,0,c	;volatile
  1787  001F8E                     l2983:
  1788                           
  1789                           ;usb_stack.c: 195: }
  1790                           ;usb_stack.c: 196: if (UIRbits.UERRIF) {
  1791  001F8E  A268               	btfss	3944,1,c	;volatile
  1792  001F90  D003               	goto	l2989
  1793                           
  1794                           ;usb_stack.c: 198: UEIR = 0;
  1795  001F92  0E00               	movlw	0
  1796  001F94  6E6A               	movwf	3946,c	;volatile
  1797                           
  1798                           ;usb_stack.c: 199: UIR &= ~(0x02);
  1799  001F96  9268               	bcf	3944,1,c	;volatile
  1800  001F98                     l2989:
  1801                           
  1802                           ;usb_stack.c: 200: }
  1803                           ;usb_stack.c: 201: if (UIRbits.STALLIF) {
  1804  001F98  BA68               	btfsc	3944,5,c	;volatile
  1805                           
  1806                           ;usb_stack.c: 202: UIR &= ~(0x20);
  1807  001F9A  9A68               	bcf	3944,5,c	;volatile
  1808                           
  1809                           ;usb_stack.c: 203: }
  1810                           ;usb_stack.c: 204: if (UIRbits.SOFIF) {
  1811  001F9C  AC68               	btfss	3944,6,c	;volatile
  1812  001F9E  D011               	goto	l3001
  1813                           
  1814                           ;usb_stack.c: 206: if (sof_handler) sof_handler();
  1815  001FA0  503F               	movf	_sof_handler+1,w,c
  1816  001FA2  103E               	iorwf	_sof_handler,w,c
  1817  001FA4  B4D8               	btfsc	status,2,c
  1818  001FA6  D00C               	goto	l2999
  1819  001FA8  D801               	call	u1828
  1820  001FAA  D00A               	goto	l2999
  1821  001FAC                     u1828:
  1822  001FAC  0005               	push	
  1823  001FAE  6EFA               	movwf	pclath,c
  1824  001FB0  503E               	movf	_sof_handler,w,c
  1825  001FB2  6EFD               	movwf	tosl,c
  1826  001FB4  503F               	movf	_sof_handler+1,w,c
  1827  001FB6  6EFE               	movwf	tosh,c
  1828  001FB8  50F8               	movf	tblptru,w,c
  1829  001FBA  6EFF               	movwf	tosu,c
  1830  001FBC  50FA               	movf	pclath,w,c
  1831  001FBE  0012               	return		;indir
  1832  001FC0                     l2999:
  1833                           
  1834                           ;usb_stack.c: 207: UIR &= ~(0x40);
  1835  001FC0  9C68               	bcf	3944,6,c	;volatile
  1836  001FC2                     l3001:
  1837                           
  1838                           ;usb_stack.c: 208: }
  1839                           ;usb_stack.c: 210: if (UIRbits.TRNIF) {
  1840  001FC2  A668               	btfss	3944,3,c	;volatile
  1841  001FC4  D008               	goto	l328
  1842                           
  1843                           ;usb_stack.c: 211: if (!(((USTAT)>>3)&0x0F))
  1844  001FC6  386C               	swapf	3948,w,c	;volatile
  1845  001FC8  46E8               	rlncf	wreg,f,c
  1846  001FCA  0B1F               	andlw	31
  1847  001FCC  0B0F               	andlw	15
  1848  001FCE  B4D8               	btfsc	status,2,c
  1849                           
  1850                           ;usb_stack.c: 212: usb_handle_transaction();
  1851  001FD0  ECD1  F00C         	call	_usb_handle_transaction	;wreg free
  1852                           
  1853                           ;usb_stack.c: 213: UIR &= ~(0x08);
  1854  001FD4  9668               	bcf	3944,3,c	;volatile
  1855  001FD6                     l328:
  1856  001FD6  0012               	return	
  1857  001FD8                     __end_of_usb_handler:
  1858                           	opt stack 0
  1859                           tosu	equ	0xFFF
  1860                           tosh	equ	0xFFE
  1861                           tosl	equ	0xFFD
  1862                           pclath	equ	0xFFA
  1863                           tblptru	equ	0xFF8
  1864                           postinc0	equ	0xFEE
  1865                           wreg	equ	0xFE8
  1866                           indf1	equ	0xFE7
  1867                           postdec1	equ	0xFE5
  1868                           fsr1h	equ	0xFE2
  1869                           fsr1l	equ	0xFE1
  1870                           indf2	equ	0xFDF
  1871                           postinc2	equ	0xFDE
  1872                           postdec2	equ	0xFDD
  1873                           fsr2h	equ	0xFDA
  1874                           fsr2l	equ	0xFD9
  1875                           status	equ	0xFD8
  1876                           
  1877 ;; *************** function _usb_handle_transaction *****************
  1878 ;; Defined at:
  1879 ;;		line 217 in file "../dp_usb/usb_stack.c"
  1880 ;; Parameters:    Size  Location     Type
  1881 ;;		None
  1882 ;; Auto vars:     Size  Location     Type
  1883 ;;		None
  1884 ;; Return value:  Size  Location     Type
  1885 ;;		None               void
  1886 ;; Registers used:
  1887 ;;		wreg, fsr1l, fsr1h, fsr2l, fsr2h, status,2, status,0, pclat, tosl, tblptrl, tblptrh, tblptru, prodl, prodh, cstack
  1888 ;; Tracked objects:
  1889 ;;		On entry : 0/0
  1890 ;;		On exit  : 0/0
  1891 ;;		Unchanged: 0/0
  1892 ;; Data sizes:     COMRAM   BANK0   BANK1   BANK2   BANK3   BANK4   BANK5   BANK6   BANK7
  1893 ;;      Params:         0       0       0       0       0       0       0       0       0
  1894 ;;      Locals:         0       0       0       0       0       0       0       0       0
  1895 ;;      Temps:          2       0       0       0       0       0       0       0       0
  1896 ;;      Totals:         2       0       0       0       0       0       0       0       0
  1897 ;;Total ram usage:        2 bytes
  1898 ;; Hardware stack levels used:    1
  1899 ;; Hardware stack levels required when called:    4
  1900 ;; This function calls:
  1901 ;;		_usb_handle_setup
  1902 ;;		_usb_handle_out
  1903 ;;		_usb_handle_in
  1904 ;;		___awdiv
  1905 ;; This function is called by:
  1906 ;;		_usb_handler
  1907 ;; This function uses a non-reentrant model
  1908 ;;
  1909                           
  1910                           	psect	text11
  1911  0019A2                     __ptext11:
  1912                           	opt stack 0
  1913  0019A2                     _usb_handle_transaction:
  1914                           	opt stack 22
  1915                           
  1916                           ;usb_stack.c: 219: usbrequesterrorflag = 0;
  1917                           
  1918                           ;incstack = 0
  1919                           ;incstack = 0
  1920  0019A2  0E00               	movlw	0
  1921  0019A4  6E5B               	movwf	_usbrequesterrorflag,c	;volatile
  1922                           
  1923                           ;usb_stack.c: 221: trn_status = (USTAT);
  1924  0019A6  CF6C F058          	movff	3948,_trn_status	;volatile
  1925                           
  1926                           ;usb_stack.c: 222: EP0_Outbdp = &usb_bdt[( (trn_status)/4 )];
  1927  0019AA  C058  F001         	movff	_trn_status,?___awdiv
  1928  0019AE  6A02               	clrf	?___awdiv+1,c
  1929  0019B0  0E00               	movlw	0
  1930  0019B2  6E04               	movwf	?___awdiv+3,c
  1931  0019B4  0E04               	movlw	4
  1932  0019B6  6E03               	movwf	?___awdiv+2,c
  1933  0019B8  ECC4  F00D         	call	___awdiv	;wreg free
  1934  0019BC  90D8               	bcf	status,0,c
  1935  0019BE  3601               	rlcf	?___awdiv,f,c
  1936  0019C0  3602               	rlcf	?___awdiv+1,f,c
  1937  0019C2  90D8               	bcf	status,0,c
  1938  0019C4  3601               	rlcf	?___awdiv,f,c
  1939  0019C6  3602               	rlcf	?___awdiv+1,f,c
  1940  0019C8  0100               	movlb	0	; () banked
  1941  0019CA  0EA2               	movlw	low _usb_bdt
  1942  0019CC  2401               	addwf	?___awdiv,w,c
  1943  0019CE  6E38               	movwf	_EP0_Outbdp,c
  1944  0019D0  0100               	movlb	0	; () banked
  1945  0019D2  0E00               	movlw	high _usb_bdt
  1946  0019D4  2002               	addwfc	?___awdiv+1,w,c
  1947  0019D6  6E39               	movwf	_EP0_Outbdp+1,c
  1948                           
  1949                           ; BSR set to: 0
  1950                           ;usb_stack.c: 223: EP0_Inbdp = &usb_bdt[( (trn_status | 0x4)/4 )];
  1951  0019D8  0E04               	movlw	4
  1952  0019DA  C058  F028         	movff	_trn_status,??_usb_handle_transaction
  1953  0019DE  6A29               	clrf	(??_usb_handle_transaction+1)& (0+255),c
  1954  0019E0  1028               	iorwf	??_usb_handle_transaction,w,c
  1955  0019E2  6E01               	movwf	?___awdiv,c
  1956  0019E4  5029               	movf	??_usb_handle_transaction+1,w,c
  1957  0019E6  6E02               	movwf	?___awdiv+1,c
  1958  0019E8  0E00               	movlw	0
  1959  0019EA  6E04               	movwf	?___awdiv+3,c
  1960  0019EC  0E04               	movlw	4
  1961  0019EE  6E03               	movwf	?___awdiv+2,c
  1962  0019F0  ECC4  F00D         	call	___awdiv	;wreg free
  1963  0019F4  90D8               	bcf	status,0,c
  1964  0019F6  3601               	rlcf	?___awdiv,f,c
  1965  0019F8  3602               	rlcf	?___awdiv+1,f,c
  1966  0019FA  90D8               	bcf	status,0,c
  1967  0019FC  3601               	rlcf	?___awdiv,f,c
  1968  0019FE  3602               	rlcf	?___awdiv+1,f,c
  1969  001A00  0100               	movlb	0	; () banked
  1970  001A02  0EA2               	movlw	low _usb_bdt
  1971  001A04  2401               	addwf	?___awdiv,w,c
  1972  001A06  6E36               	movwf	_EP0_Inbdp,c
  1973  001A08  0100               	movlb	0	; () banked
  1974  001A0A  0E00               	movlw	high _usb_bdt
  1975  001A0C  2002               	addwfc	?___awdiv+1,w,c
  1976  001A0E  6E37               	movwf	_EP0_Inbdp+1,c
  1977                           
  1978                           ;usb_stack.c: 225: switch (EP0_Outbdp->BDSTAT & 0b00111100) {
  1979  001A10  D009               	goto	l2965
  1980  001A12                     l2957:
  1981                           
  1982                           ;usb_stack.c: 227: usb_handle_setup();
  1983  001A12  EC54  F008         	call	_usb_handle_setup	;wreg free
  1984                           
  1985                           ;usb_stack.c: 228: break;
  1986  001A16  D01C               	goto	l336
  1987  001A18                     l2959:
  1988                           
  1989                           ;usb_stack.c: 230: usb_handle_out();
  1990  001A18  ECDA  F00E         	call	_usb_handle_out	;wreg free
  1991                           
  1992                           ;usb_stack.c: 231: break;
  1993  001A1C  D019               	goto	l336
  1994  001A1E                     l2961:
  1995                           
  1996                           ;usb_stack.c: 233: usb_handle_in();
  1997  001A1E  EC1B  F00F         	call	_usb_handle_in	;wreg free
  1998                           
  1999                           ;usb_stack.c: 234: break;
  2000  001A22  D016               	goto	l336
  2001  001A24                     l2965:
  2002  001A24  C038  FFD9         	movff	_EP0_Outbdp,fsr2l
  2003  001A28  C039  FFDA         	movff	_EP0_Outbdp+1,fsr2h
  2004  001A2C  50DF               	movf	indf2,w,c
  2005  001A2E  0B3C               	andlw	60
  2006  001A30  6E28               	movwf	??_usb_handle_transaction& (0+255),c
  2007  001A32  6A29               	clrf	(??_usb_handle_transaction+1)& (0+255),c
  2008                           
  2009                           ; Switch on 2 bytes has been partitioned into a top level switch of size 1, and 1 sub-sw
      +                          itches
  2010                           ; Switch size 1, requested type "space"
  2011                           ; Number of cases is 1, Range of values is 0 to 0
  2012                           ; switch strategies available:
  2013                           ; Name         Instructions Cycles
  2014                           ; simple_byte            4     3 (average)
  2015                           ;	Chosen strategy is simple_byte
  2016  001A34  5029               	movf	??_usb_handle_transaction+1,w,c
  2017  001A36  0A00               	xorlw	0	; case 0
  2018  001A38  A4D8               	btfss	status,2,c
  2019  001A3A  D00A               	goto	l336
  2020                           
  2021                           ; Switch size 1, requested type "space"
  2022                           ; Number of cases is 3, Range of values is 4 to 52
  2023                           ; switch strategies available:
  2024                           ; Name         Instructions Cycles
  2025                           ; simple_byte           10     6 (average)
  2026                           ;	Chosen strategy is simple_byte
  2027  001A3C  5028               	movf	??_usb_handle_transaction,w,c
  2028  001A3E  0A04               	xorlw	4	; case 4
  2029  001A40  B4D8               	btfsc	status,2,c
  2030  001A42  D7EA               	goto	l2959
  2031  001A44  0A20               	xorlw	32	; case 36
  2032  001A46  B4D8               	btfsc	status,2,c
  2033  001A48  D7EA               	goto	l2961
  2034  001A4A  0A10               	xorlw	16	; case 52
  2035  001A4C  B4D8               	btfsc	status,2,c
  2036  001A4E  D7E1               	goto	l2957
  2037  001A50                     l336:
  2038  001A50  0012               	return	
  2039  001A52                     __end_of_usb_handle_transaction:
  2040                           	opt stack 0
  2041                           tosu	equ	0xFFF
  2042                           tosh	equ	0xFFE
  2043                           tosl	equ	0xFFD
  2044                           pclath	equ	0xFFA
  2045                           tblptru	equ	0xFF8
  2046                           postinc0	equ	0xFEE
  2047                           wreg	equ	0xFE8
  2048                           indf1	equ	0xFE7
  2049                           postdec1	equ	0xFE5
  2050                           fsr1h	equ	0xFE2
  2051                           fsr1l	equ	0xFE1
  2052                           indf2	equ	0xFDF
  2053                           postinc2	equ	0xFDE
  2054                           postdec2	equ	0xFDD
  2055                           fsr2h	equ	0xFDA
  2056                           fsr2l	equ	0xFD9
  2057                           status	equ	0xFD8
  2058                           
  2059 ;; *************** function ___awdiv *****************
  2060 ;; Defined at:
  2061 ;;		line 10 in file "C:\Program Files (x86)\Microchip\xc8\v1.21\sources\common\awdiv.c"
  2062 ;; Parameters:    Size  Location     Type
  2063 ;;  dividend        2    0[COMRAM] int 
  2064 ;;  divisor         2    2[COMRAM] int 
  2065 ;; Auto vars:     Size  Location     Type
  2066 ;;  quotient        2    7[COMRAM] int 
  2067 ;;  sign            1    6[COMRAM] unsigned char 
  2068 ;;  counter         1    5[COMRAM] unsigned char 
  2069 ;; Return value:  Size  Location     Type
  2070 ;;                  2    0[COMRAM] int 
  2071 ;; Registers used:
  2072 ;;		wreg, status,2, status,0
  2073 ;; Tracked objects:
  2074 ;;		On entry : 0/0
  2075 ;;		On exit  : 0/0
  2076 ;;		Unchanged: 0/0
  2077 ;; Data sizes:     COMRAM   BANK0   BANK1   BANK2   BANK3   BANK4   BANK5   BANK6   BANK7
  2078 ;;      Params:         4       0       0       0       0       0       0       0       0
  2079 ;;      Locals:         4       0       0       0       0       0       0       0       0
  2080 ;;      Temps:          1       0       0       0       0       0       0       0       0
  2081 ;;      Totals:         9       0       0       0       0       0       0       0       0
  2082 ;;Total ram usage:        9 bytes
  2083 ;; Hardware stack levels used:    1
  2084 ;; This function calls:
  2085 ;;		Nothing
  2086 ;; This function is called by:
  2087 ;;		_usb_handle_transaction
  2088 ;; This function uses a non-reentrant model
  2089 ;;
  2090                           
  2091                           	psect	text12
  2092  001B88                     __ptext12:
  2093                           	opt stack 0
  2094  001B88                     ___awdiv:
  2095                           	opt stack 25
  2096                           
  2097                           ;incstack = 0
  2098                           ;incstack = 0
  2099  001B88  6E05               	movwf	??___awdiv& (0+255),c
  2100  001B8A  0E00               	movlw	0
  2101  001B8C  6E07               	movwf	___awdiv@sign,c
  2102  001B8E  5005               	movf	??___awdiv& (0+255),w,c
  2103  001B90  AE04               	btfss	___awdiv@divisor+1,7,c
  2104  001B92  D008               	goto	l2375
  2105  001B94  6C03               	negf	___awdiv@divisor,c
  2106  001B96  1E04               	comf	___awdiv@divisor+1,f,c
  2107  001B98  B0D8               	btfsc	status,0,c
  2108  001B9A  2A04               	incf	___awdiv@divisor+1,f,c
  2109  001B9C  6E05               	movwf	??___awdiv& (0+255),c
  2110  001B9E  0E01               	movlw	1
  2111  001BA0  6E07               	movwf	___awdiv@sign,c
  2112  001BA2  5005               	movf	??___awdiv& (0+255),w,c
  2113  001BA4                     l2375:
  2114  001BA4  AE02               	btfss	___awdiv@dividend+1,7,c
  2115  001BA6  D006               	goto	l2381
  2116  001BA8  6C01               	negf	___awdiv@dividend,c
  2117  001BAA  1E02               	comf	___awdiv@dividend+1,f,c
  2118  001BAC  B0D8               	btfsc	status,0,c
  2119  001BAE  2A02               	incf	___awdiv@dividend+1,f,c
  2120  001BB0  0E01               	movlw	1
  2121  001BB2  1A07               	xorwf	___awdiv@sign,f,c
  2122  001BB4                     l2381:
  2123  001BB4  0E00               	movlw	0
  2124  001BB6  6E09               	movwf	___awdiv@quotient+1,c
  2125  001BB8  0E00               	movlw	0
  2126  001BBA  6E08               	movwf	___awdiv@quotient,c
  2127  001BBC  5004               	movf	___awdiv@divisor+1,w,c
  2128  001BBE  1003               	iorwf	___awdiv@divisor,w,c
  2129  001BC0  B4D8               	btfsc	status,2,c
  2130  001BC2  D01E               	goto	l2403
  2131  001BC4  6E05               	movwf	??___awdiv& (0+255),c
  2132  001BC6  0E01               	movlw	1
  2133  001BC8  6E06               	movwf	___awdiv@counter,c
  2134  001BCA  5005               	movf	??___awdiv& (0+255),w,c
  2135  001BCC  D004               	goto	l2389
  2136  001BCE                     l2387:
  2137  001BCE  90D8               	bcf	status,0,c
  2138  001BD0  3603               	rlcf	___awdiv@divisor,f,c
  2139  001BD2  3604               	rlcf	___awdiv@divisor+1,f,c
  2140  001BD4  2A06               	incf	___awdiv@counter,f,c
  2141  001BD6                     l2389:
  2142  001BD6  AE04               	btfss	___awdiv@divisor+1,7,c
  2143  001BD8  D7FA               	goto	l2387
  2144  001BDA                     l2391:
  2145  001BDA  90D8               	bcf	status,0,c
  2146  001BDC  3608               	rlcf	___awdiv@quotient,f,c
  2147  001BDE  3609               	rlcf	___awdiv@quotient+1,f,c
  2148  001BE0  5003               	movf	___awdiv@divisor,w,c
  2149  001BE2  5C01               	subwf	___awdiv@dividend,w,c
  2150  001BE4  5004               	movf	___awdiv@divisor+1,w,c
  2151  001BE6  5802               	subwfb	___awdiv@dividend+1,w,c
  2152  001BE8  A0D8               	btfss	status,0,c
  2153  001BEA  D005               	goto	l2399
  2154  001BEC  5003               	movf	___awdiv@divisor,w,c
  2155  001BEE  5E01               	subwf	___awdiv@dividend,f,c
  2156  001BF0  5004               	movf	___awdiv@divisor+1,w,c
  2157  001BF2  5A02               	subwfb	___awdiv@dividend+1,f,c
  2158  001BF4  8008               	bsf	___awdiv@quotient,0,c
  2159  001BF6                     l2399:
  2160  001BF6  90D8               	bcf	status,0,c
  2161  001BF8  3204               	rrcf	___awdiv@divisor+1,f,c
  2162  001BFA  3203               	rrcf	___awdiv@divisor,f,c
  2163  001BFC  2E06               	decfsz	___awdiv@counter,f,c
  2164  001BFE  D7ED               	goto	l2391
  2165  001C00                     l2403:
  2166  001C00  5007               	movf	___awdiv@sign,w,c
  2167  001C02  B4D8               	btfsc	status,2,c
  2168  001C04  D004               	goto	l2407
  2169  001C06  6C08               	negf	___awdiv@quotient,c
  2170  001C08  1E09               	comf	___awdiv@quotient+1,f,c
  2171  001C0A  B0D8               	btfsc	status,0,c
  2172  001C0C  2A09               	incf	___awdiv@quotient+1,f,c
  2173  001C0E                     l2407:
  2174  001C0E  C008  F001         	movff	___awdiv@quotient,?___awdiv
  2175  001C12  C009  F002         	movff	___awdiv@quotient+1,?___awdiv+1
  2176  001C16  0012               	return	
  2177  001C18                     __end_of___awdiv:
  2178                           	opt stack 0
  2179                           tosu	equ	0xFFF
  2180                           tosh	equ	0xFFE
  2181                           tosl	equ	0xFFD
  2182                           pclath	equ	0xFFA
  2183                           tblptru	equ	0xFF8
  2184                           postinc0	equ	0xFEE
  2185                           wreg	equ	0xFE8
  2186                           indf1	equ	0xFE7
  2187                           postdec1	equ	0xFE5
  2188                           fsr1h	equ	0xFE2
  2189                           fsr1l	equ	0xFE1
  2190                           indf2	equ	0xFDF
  2191                           postinc2	equ	0xFDE
  2192                           postdec2	equ	0xFDD
  2193                           fsr2h	equ	0xFDA
  2194                           fsr2l	equ	0xFD9
  2195                           status	equ	0xFD8
  2196                           
  2197 ;; *************** function _usb_handle_in *****************
  2198 ;; Defined at:
  2199 ;;		line 509 in file "../dp_usb/usb_stack.c"
  2200 ;; Parameters:    Size  Location     Type
  2201 ;;		None
  2202 ;; Auto vars:     Size  Location     Type
  2203 ;;		None
  2204 ;; Return value:  Size  Location     Type
  2205 ;;		None               void
  2206 ;; Registers used:
  2207 ;;		wreg, fsr2l, fsr2h, status,2, status,0, pclat, tosl, tblptrl, tblptrh, tblptru, prodl, prodh, cstack
  2208 ;; Tracked objects:
  2209 ;;		On entry : 0/0
  2210 ;;		On exit  : 0/0
  2211 ;;		Unchanged: 0/0
  2212 ;; Data sizes:     COMRAM   BANK0   BANK1   BANK2   BANK3   BANK4   BANK5   BANK6   BANK7
  2213 ;;      Params:         0       0       0       0       0       0       0       0       0
  2214 ;;      Locals:         0       0       0       0       0       0       0       0       0
  2215 ;;      Temps:          1       0       0       0       0       0       0       0       0
  2216 ;;      Totals:         1       0       0       0       0       0       0       0       0
  2217 ;;Total ram usage:        1 bytes
  2218 ;; Hardware stack levels used:    1
  2219 ;; Hardware stack levels required when called:    2
  2220 ;; This function calls:
  2221 ;;		Absolute function
  2222 ;;		_cdc_get_line_coding
  2223 ;;		_cdc_set_line_coding_status
  2224 ;;		_cdc_set_control_line_state_status
  2225 ;;		_usb_send_rom
  2226 ;;		_usb_set_address
  2227 ;; This function is called by:
  2228 ;;		_usb_handle_transaction
  2229 ;; This function uses a non-reentrant model
  2230 ;;
  2231                           
  2232                           	psect	text13
  2233  001E36                     __ptext13:
  2234                           	opt stack 0
  2235  001E36                     _usb_handle_in:
  2236                           	opt stack 23
  2237                           
  2238                           ;usb_stack.c: 510: if (endpoints[((trn_status>>3)&0x0F)].in_handler) {
  2239                           
  2240                           ;incstack = 0
  2241                           ;incstack = 0
  2242  001E36  C058  F010         	movff	_trn_status,??_usb_handle_in
  2243  001E3A  90D8               	bcf	status,0,c
  2244  001E3C  3210               	rrcf	??_usb_handle_in,f,c
  2245  001E3E  90D8               	bcf	status,0,c
  2246  001E40  3210               	rrcf	??_usb_handle_in,f,c
  2247  001E42  90D8               	bcf	status,0,c
  2248  001E44  3210               	rrcf	??_usb_handle_in,f,c
  2249  001E46  0E0F               	movlw	15
  2250  001E48  1610               	andwf	??_usb_handle_in,f,c
  2251  001E4A  5010               	movf	??_usb_handle_in,w,c
  2252  001E4C  0D04               	mullw	4
  2253  001E4E  0100               	movlb	0	; () banked
  2254  001E50  0E60               	movlw	low _endpoints
  2255  001E52  24F3               	addwf	prodl,w,c
  2256  001E54  6ED9               	movwf	fsr2l,c
  2257  001E56  0100               	movlb	0	; () banked
  2258  001E58  0E00               	movlw	high _endpoints
  2259  001E5A  20F4               	addwfc	prodh,w,c
  2260  001E5C  6EDA               	movwf	fsr2h,c
  2261  001E5E  50DE               	movf	postinc2,w,c
  2262  001E60  10DD               	iorwf	postdec2,w,c
  2263  001E62  B4D8               	btfsc	status,2,c
  2264  001E64  D020               	goto	l438
  2265                           
  2266                           ; BSR set to: 0
  2267                           ;usb_stack.c: 511: endpoints[((trn_status>>3)&0x0F)].in_handler();
  2268  001E66  C058  F010         	movff	_trn_status,??_usb_handle_in
  2269  001E6A  90D8               	bcf	status,0,c
  2270  001E6C  3210               	rrcf	??_usb_handle_in,f,c
  2271  001E6E  90D8               	bcf	status,0,c
  2272  001E70  3210               	rrcf	??_usb_handle_in,f,c
  2273  001E72  90D8               	bcf	status,0,c
  2274  001E74  3210               	rrcf	??_usb_handle_in,f,c
  2275  001E76  0E0F               	movlw	15
  2276  001E78  1610               	andwf	??_usb_handle_in,f,c
  2277  001E7A  5010               	movf	??_usb_handle_in,w,c
  2278  001E7C  0D04               	mullw	4
  2279  001E7E  0100               	movlb	0	; () banked
  2280  001E80  0E60               	movlw	low _endpoints
  2281  001E82  24F3               	addwf	prodl,w,c
  2282  001E84  6ED9               	movwf	fsr2l,c
  2283  001E86  0100               	movlb	0	; () banked
  2284  001E88  0E00               	movlw	high _endpoints
  2285  001E8A  20F4               	addwfc	prodh,w,c
  2286  001E8C  6EDA               	movwf	fsr2h,c
  2287  001E8E  D801               	call	u1508
  2288  001E90  D00A               	goto	l438
  2289  001E92                     u1508:
  2290  001E92  0005               	push	
  2291  001E94  6EFA               	movwf	pclath,c
  2292  001E96  50DE               	movf	postinc2,w,c
  2293  001E98  6EFD               	movwf	tosl,c
  2294  001E9A  50DE               	movf	postinc2,w,c
  2295  001E9C  6EFE               	movwf	tosh,c
  2296  001E9E  50F8               	movf	tblptru,w,c
  2297  001EA0  6EFF               	movwf	tosu,c
  2298  001EA2  50FA               	movf	pclath,w,c
  2299  001EA4  0012               	return		;indir
  2300  001EA6                     l438:
  2301  001EA6  0012               	return	
  2302  001EA8                     __end_of_usb_handle_in:
  2303                           	opt stack 0
  2304                           tosu	equ	0xFFF
  2305                           tosh	equ	0xFFE
  2306                           tosl	equ	0xFFD
  2307                           pclath	equ	0xFFA
  2308                           tblptru	equ	0xFF8
  2309                           prodh	equ	0xFF4
  2310                           prodl	equ	0xFF3
  2311                           postinc0	equ	0xFEE
  2312                           wreg	equ	0xFE8
  2313                           indf1	equ	0xFE7
  2314                           postdec1	equ	0xFE5
  2315                           fsr1h	equ	0xFE2
  2316                           fsr1l	equ	0xFE1
  2317                           indf2	equ	0xFDF
  2318                           postinc2	equ	0xFDE
  2319                           postdec2	equ	0xFDD
  2320                           fsr2h	equ	0xFDA
  2321                           fsr2l	equ	0xFD9
  2322                           status	equ	0xFD8
  2323                           
  2324 ;; *************** function _usb_send_rom *****************
  2325 ;; Defined at:
  2326 ;;		line 577 in file "../dp_usb/usb_stack.c"
  2327 ;; Parameters:    Size  Location     Type
  2328 ;;		None
  2329 ;; Auto vars:     Size  Location     Type
  2330 ;;  packet_len      2   13[COMRAM] unsigned int 
  2331 ;;  i               2   11[COMRAM] unsigned int 
  2332 ;; Return value:  Size  Location     Type
  2333 ;;		None               void
  2334 ;; Registers used:
  2335 ;;		wreg, fsr2l, fsr2h, status,2, status,0, tblptrl, tblptrh, tblptru, cstack
  2336 ;; Tracked objects:
  2337 ;;		On entry : 0/0
  2338 ;;		On exit  : 0/0
  2339 ;;		Unchanged: 0/0
  2340 ;; Data sizes:     COMRAM   BANK0   BANK1   BANK2   BANK3   BANK4   BANK5   BANK6   BANK7
  2341 ;;      Params:         0       0       0       0       0       0       0       0       0
  2342 ;;      Locals:         4       0       0       0       0       0       0       0       0
  2343 ;;      Temps:          5       0       0       0       0       0       0       0       0
  2344 ;;      Totals:         9       0       0       0       0       0       0       0       0
  2345 ;;Total ram usage:        9 bytes
  2346 ;; Hardware stack levels used:    1
  2347 ;; Hardware stack levels required when called:    1
  2348 ;; This function calls:
  2349 ;;		_usb_set_in_handler
  2350 ;; This function is called by:
  2351 ;;		_usb_handle_StandardDeviceRequest
  2352 ;;		_usb_handle_in
  2353 ;; This function uses a non-reentrant model
  2354 ;;
  2355                           
  2356                           	psect	text14
  2357  0018BC                     __ptext14:
  2358                           	opt stack 0
  2359  0018BC                     _usb_send_rom:
  2360                           	opt stack 23
  2361                           
  2362                           ;usb_stack.c: 579: unsigned int i;
  2363                           ;usb_stack.c: 580: size_t packet_len;
  2364                           ;usb_stack.c: 581: if (usb_rom_len) {
  2365                           
  2366                           ;incstack = 0
  2367                           ;incstack = 0
  2368  0018BC  5045               	movf	_usb_rom_len+1,w,c
  2369  0018BE  1044               	iorwf	_usb_rom_len,w,c
  2370  0018C0  B4D8               	btfsc	status,2,c
  2371  0018C2  D03F               	goto	l2749
  2372                           
  2373                           ;usb_stack.c: 582: packet_len = (usb_rom_len < 8u) ? usb_rom_len : 8u;
  2374  0018C4  0E08               	movlw	8
  2375  0018C6  5C44               	subwf	_usb_rom_len,w,c
  2376  0018C8  0E00               	movlw	0
  2377  0018CA  5845               	subwfb	_usb_rom_len+1,w,c
  2378  0018CC  A0D8               	btfss	status,0,c
  2379  0018CE  D005               	goto	l473
  2380  0018D0  0E00               	movlw	0
  2381  0018D2  6E0F               	movwf	usb_send_rom@packet_len+1,c
  2382  0018D4  0E08               	movlw	8
  2383  0018D6  6E0E               	movwf	usb_send_rom@packet_len,c
  2384  0018D8  D004               	goto	l2741
  2385  0018DA                     l473:
  2386  0018DA  C044  F00E         	movff	_usb_rom_len,usb_send_rom@packet_len
  2387  0018DE  C045  F00F         	movff	_usb_rom_len+1,usb_send_rom@packet_len+1
  2388  0018E2                     l2741:
  2389                           
  2390                           ;usb_stack.c: 584: for (i = 0; i < packet_len; i++) {
  2391  0018E2  0E00               	movlw	0
  2392  0018E4  6E0D               	movwf	usb_send_rom@i+1,c
  2393  0018E6  0E00               	movlw	0
  2394  0018E8  6E0C               	movwf	usb_send_rom@i,c
  2395  0018EA  D024               	goto	l2747
  2396  0018EC                     l2743:
  2397                           
  2398                           ;usb_stack.c: 585: EP0_Inbdp->BDADDR[i] = usb_rom_ptr[i];
  2399  0018EC  500C               	movf	usb_send_rom@i,w,c
  2400  0018EE  242F               	addwf	_usb_rom_ptr,w,c
  2401  0018F0  6E07               	movwf	??_usb_send_rom& (0+255),c
  2402  0018F2  500D               	movf	usb_send_rom@i+1,w,c
  2403  0018F4  2030               	addwfc	_usb_rom_ptr+1,w,c
  2404  0018F6  6E08               	movwf	(??_usb_send_rom+1)& (0+255),c
  2405  0018F8  0E00               	movlw	0
  2406  0018FA  2031               	addwfc	_usb_rom_ptr+2,w,c
  2407  0018FC  6E09               	movwf	(??_usb_send_rom+2)& (0+255),c
  2408  0018FE  C007  FFF6         	movff	??_usb_send_rom,tblptrl
  2409  001902  C008  FFF7         	movff	??_usb_send_rom+1,tblptrh
  2410  001906  C009  FFF8         	movff	??_usb_send_rom+2,tblptru
  2411  00190A  EE20 F002          	lfsr	2,2
  2412  00190E  5036               	movf	_EP0_Inbdp,w,c
  2413  001910  26D9               	addwf	fsr2l,f,c
  2414  001912  5037               	movf	_EP0_Inbdp+1,w,c
  2415  001914  22DA               	addwfc	fsr2h,f,c
  2416  001916  CFDE F00A          	movff	postinc2,??_usb_send_rom+3
  2417  00191A  CFDD F00B          	movff	postdec2,??_usb_send_rom+4
  2418  00191E  500C               	movf	usb_send_rom@i,w,c
  2419  001920  240A               	addwf	??_usb_send_rom+3,w,c
  2420  001922  6ED9               	movwf	fsr2l,c
  2421  001924  500D               	movf	usb_send_rom@i+1,w,c
  2422  001926  200B               	addwfc	??_usb_send_rom+4,w,c
  2423  001928  6EDA               	movwf	fsr2h,c
  2424  00192A  0008               	tblrd		*
  2425  00192C  CFF5 FFDF          	movff	tablat,indf2
  2426  001930  4A0C               	infsnz	usb_send_rom@i,f,c
  2427  001932  2A0D               	incf	usb_send_rom@i+1,f,c
  2428  001934                     l2747:
  2429  001934  500E               	movf	usb_send_rom@packet_len,w,c
  2430  001936  5C0C               	subwf	usb_send_rom@i,w,c
  2431  001938  500F               	movf	usb_send_rom@packet_len+1,w,c
  2432  00193A  580D               	subwfb	usb_send_rom@i+1,w,c
  2433  00193C  B0D8               	btfsc	status,0,c
  2434  00193E  D00F               	goto	l2753
  2435  001940  D7D5               	goto	l2743
  2436  001942                     l2749:
  2437                           
  2438                           ;usb_stack.c: 588: packet_len = 0;
  2439  001942  0E00               	movlw	0
  2440  001944  6E0F               	movwf	usb_send_rom@packet_len+1,c
  2441  001946  0E00               	movlw	0
  2442  001948  6E0E               	movwf	usb_send_rom@packet_len,c
  2443                           
  2444                           ;usb_stack.c: 589: usb_set_in_handler(0, (usb_handler_t) 0);
  2445  00194A  0E00               	movlw	0
  2446  00194C  6E02               	movwf	?_usb_set_in_handler+1,c
  2447  00194E  0E00               	movlw	0
  2448  001950  6E01               	movwf	?_usb_set_in_handler,c
  2449  001952  0E00               	movlw	0
  2450  001954  6E04               	movwf	?_usb_set_in_handler+3,c
  2451  001956  0E00               	movlw	0
  2452  001958  6E03               	movwf	?_usb_set_in_handler+2,c
  2453  00195A  ECCB  F010         	call	_usb_set_in_handler	;wreg free
  2454  00195E                     l2753:
  2455                           
  2456                           ;usb_stack.c: 590: }
  2457                           ;usb_stack.c: 592: EP0_Inbdp->BDCNT = (BYTE) packet_len;
  2458  00195E  EE20 F001          	lfsr	2,1
  2459  001962  5036               	movf	_EP0_Inbdp,w,c
  2460  001964  26D9               	addwf	fsr2l,f,c
  2461  001966  5037               	movf	_EP0_Inbdp+1,w,c
  2462  001968  22DA               	addwfc	fsr2h,f,c
  2463  00196A  C00E  FFDF         	movff	usb_send_rom@packet_len,indf2
  2464                           
  2465                           ;usb_stack.c: 593: EP0_Inbdp->BDSTAT = ((EP0_Inbdp->BDSTAT ^ 0x40) & 0x40) | 0x80 | 0x08;
  2466  00196E  C036  FFD9         	movff	_EP0_Inbdp,fsr2l
  2467  001972  C037  FFDA         	movff	_EP0_Inbdp+1,fsr2h
  2468  001976  50DF               	movf	indf2,w,c
  2469  001978  0A40               	xorlw	64
  2470  00197A  0B40               	andlw	64
  2471  00197C  0988               	iorlw	136
  2472  00197E  C036  FFD9         	movff	_EP0_Inbdp,fsr2l
  2473  001982  C037  FFDA         	movff	_EP0_Inbdp+1,fsr2h
  2474  001986  6EDF               	movwf	indf2,c
  2475                           
  2476                           ;usb_stack.c: 595: usb_rom_ptr += packet_len;
  2477  001988  C00E  FFE8         	movff	usb_send_rom@packet_len,wreg
  2478  00198C  262F               	addwf	_usb_rom_ptr,f,c
  2479  00198E  C00F  FFE8         	movff	usb_send_rom@packet_len+1,wreg
  2480  001992  2230               	addwfc	_usb_rom_ptr+1,f,c
  2481  001994  0E00               	movlw	0
  2482  001996  2231               	addwfc	_usb_rom_ptr+2,f,c
  2483                           
  2484                           ;usb_stack.c: 596: usb_rom_len -= packet_len;
  2485  001998  500E               	movf	usb_send_rom@packet_len,w,c
  2486  00199A  5E44               	subwf	_usb_rom_len,f,c
  2487  00199C  500F               	movf	usb_send_rom@packet_len+1,w,c
  2488  00199E  5A45               	subwfb	_usb_rom_len+1,f,c
  2489  0019A0  0012               	return	
  2490  0019A2                     __end_of_usb_send_rom:
  2491                           	opt stack 0
  2492                           tosu	equ	0xFFF
  2493                           tosh	equ	0xFFE
  2494                           tosl	equ	0xFFD
  2495                           pclath	equ	0xFFA
  2496                           tblptru	equ	0xFF8
  2497                           tblptrh	equ	0xFF7
  2498                           tblptrl	equ	0xFF6
  2499                           tablat	equ	0xFF5
  2500                           prodh	equ	0xFF4
  2501                           prodl	equ	0xFF3
  2502                           postinc0	equ	0xFEE
  2503                           wreg	equ	0xFE8
  2504                           indf1	equ	0xFE7
  2505                           postdec1	equ	0xFE5
  2506                           fsr1h	equ	0xFE2
  2507                           fsr1l	equ	0xFE1
  2508                           indf2	equ	0xFDF
  2509                           postinc2	equ	0xFDE
  2510                           postdec2	equ	0xFDD
  2511                           fsr2h	equ	0xFDA
  2512                           fsr2l	equ	0xFD9
  2513                           status	equ	0xFD8
  2514                           
  2515 ;; *************** function _cdc_set_line_coding_status *****************
  2516 ;; Defined at:
  2517 ;;		line 226 in file "../dp_usb/cdc.c"
  2518 ;; Parameters:    Size  Location     Type
  2519 ;;		None
  2520 ;; Auto vars:     Size  Location     Type
  2521 ;;		None
  2522 ;; Return value:  Size  Location     Type
  2523 ;;		None               void
  2524 ;; Registers used:
  2525 ;;		wreg, fsr2l, fsr2h, status,2, status,0, cstack
  2526 ;; Tracked objects:
  2527 ;;		On entry : 0/0
  2528 ;;		On exit  : 0/0
  2529 ;;		Unchanged: 0/0
  2530 ;; Data sizes:     COMRAM   BANK0   BANK1   BANK2   BANK3   BANK4   BANK5   BANK6   BANK7
  2531 ;;      Params:         0       0       0       0       0       0       0       0       0
  2532 ;;      Locals:         0       0       0       0       0       0       0       0       0
  2533 ;;      Temps:          0       0       0       0       0       0       0       0       0
  2534 ;;      Totals:         0       0       0       0       0       0       0       0       0
  2535 ;;Total ram usage:        0 bytes
  2536 ;; Hardware stack levels used:    1
  2537 ;; Hardware stack levels required when called:    1
  2538 ;; This function calls:
  2539 ;;		_usb_set_in_handler
  2540 ;; This function is called by:
  2541 ;;		_cdc_set_line_coding_data
  2542 ;;		_usb_handle_in
  2543 ;; This function uses a non-reentrant model
  2544 ;;
  2545                           
  2546                           	psect	text15
  2547  002298                     __ptext15:
  2548                           	opt stack 0
  2549  002298                     _cdc_set_line_coding_status:
  2550                           	opt stack 23
  2551                           
  2552                           ;cdc.c: 227: usb_set_in_handler(0, (usb_handler_t) 0);
  2553                           
  2554                           ;incstack = 0
  2555                           ;incstack = 0
  2556  002298  0E00               	movlw	0
  2557  00229A  6E02               	movwf	?_usb_set_in_handler+1,c
  2558  00229C  0E00               	movlw	0
  2559  00229E  6E01               	movwf	?_usb_set_in_handler,c
  2560  0022A0  0E00               	movlw	0
  2561  0022A2  6E04               	movwf	?_usb_set_in_handler+3,c
  2562  0022A4  0E00               	movlw	0
  2563  0022A6  6E03               	movwf	?_usb_set_in_handler+2,c
  2564  0022A8  ECCB  F010         	call	_usb_set_in_handler	;wreg free
  2565  0022AC  0012               	return	
  2566  0022AE                     __end_of_cdc_set_line_coding_status:
  2567                           	opt stack 0
  2568                           tosu	equ	0xFFF
  2569                           tosh	equ	0xFFE
  2570                           tosl	equ	0xFFD
  2571                           pclath	equ	0xFFA
  2572                           tblptru	equ	0xFF8
  2573                           tblptrh	equ	0xFF7
  2574                           tblptrl	equ	0xFF6
  2575                           tablat	equ	0xFF5
  2576                           prodh	equ	0xFF4
  2577                           prodl	equ	0xFF3
  2578                           postinc0	equ	0xFEE
  2579                           wreg	equ	0xFE8
  2580                           indf1	equ	0xFE7
  2581                           postdec1	equ	0xFE5
  2582                           fsr1h	equ	0xFE2
  2583                           fsr1l	equ	0xFE1
  2584                           indf2	equ	0xFDF
  2585                           postinc2	equ	0xFDE
  2586                           postdec2	equ	0xFDD
  2587                           fsr2h	equ	0xFDA
  2588                           fsr2l	equ	0xFD9
  2589                           status	equ	0xFD8
  2590                           
  2591 ;; *************** function _cdc_set_control_line_state_status *****************
  2592 ;; Defined at:
  2593 ;;		line 230 in file "../dp_usb/cdc.c"
  2594 ;; Parameters:    Size  Location     Type
  2595 ;;		None
  2596 ;; Auto vars:     Size  Location     Type
  2597 ;;		None
  2598 ;; Return value:  Size  Location     Type
  2599 ;;		None               void
  2600 ;; Registers used:
  2601 ;;		wreg, fsr2l, fsr2h, status,2, status,0, cstack
  2602 ;; Tracked objects:
  2603 ;;		On entry : 0/0
  2604 ;;		On exit  : 0/0
  2605 ;;		Unchanged: 0/0
  2606 ;; Data sizes:     COMRAM   BANK0   BANK1   BANK2   BANK3   BANK4   BANK5   BANK6   BANK7
  2607 ;;      Params:         0       0       0       0       0       0       0       0       0
  2608 ;;      Locals:         0       0       0       0       0       0       0       0       0
  2609 ;;      Temps:          0       0       0       0       0       0       0       0       0
  2610 ;;      Totals:         0       0       0       0       0       0       0       0       0
  2611 ;;Total ram usage:        0 bytes
  2612 ;; Hardware stack levels used:    1
  2613 ;; Hardware stack levels required when called:    1
  2614 ;; This function calls:
  2615 ;;		_usb_set_in_handler
  2616 ;; This function is called by:
  2617 ;;		_cdc_setup
  2618 ;;		_usb_handle_in
  2619 ;; This function uses a non-reentrant model
  2620 ;;
  2621                           
  2622                           	psect	text16
  2623  0022AE                     __ptext16:
  2624                           	opt stack 0
  2625  0022AE                     _cdc_set_control_line_state_status:
  2626                           	opt stack 23
  2627                           
  2628                           ;cdc.c: 231: usb_set_in_handler(0, (usb_handler_t) 0);
  2629                           
  2630                           ;incstack = 0
  2631                           ;incstack = 0
  2632  0022AE  0E00               	movlw	0
  2633  0022B0  6E02               	movwf	?_usb_set_in_handler+1,c
  2634  0022B2  0E00               	movlw	0
  2635  0022B4  6E01               	movwf	?_usb_set_in_handler,c
  2636  0022B6  0E00               	movlw	0
  2637  0022B8  6E04               	movwf	?_usb_set_in_handler+3,c
  2638  0022BA  0E00               	movlw	0
  2639  0022BC  6E03               	movwf	?_usb_set_in_handler+2,c
  2640  0022BE  ECCB  F010         	call	_usb_set_in_handler	;wreg free
  2641  0022C2  0012               	return	
  2642  0022C4                     __end_of_cdc_set_control_line_state_status:
  2643                           	opt stack 0
  2644                           tosu	equ	0xFFF
  2645                           tosh	equ	0xFFE
  2646                           tosl	equ	0xFFD
  2647                           pclath	equ	0xFFA
  2648                           tblptru	equ	0xFF8
  2649                           tblptrh	equ	0xFF7
  2650                           tblptrl	equ	0xFF6
  2651                           tablat	equ	0xFF5
  2652                           prodh	equ	0xFF4
  2653                           prodl	equ	0xFF3
  2654                           postinc0	equ	0xFEE
  2655                           wreg	equ	0xFE8
  2656                           indf1	equ	0xFE7
  2657                           postdec1	equ	0xFE5
  2658                           fsr1h	equ	0xFE2
  2659                           fsr1l	equ	0xFE1
  2660                           indf2	equ	0xFDF
  2661                           postinc2	equ	0xFDE
  2662                           postdec2	equ	0xFDD
  2663                           fsr2h	equ	0xFDA
  2664                           fsr2l	equ	0xFD9
  2665                           status	equ	0xFD8
  2666                           
  2667 ;; *************** function _cdc_get_line_coding *****************
  2668 ;; Defined at:
  2669 ;;		line 191 in file "../dp_usb/cdc.c"
  2670 ;; Parameters:    Size  Location     Type
  2671 ;;		None
  2672 ;; Auto vars:     Size  Location     Type
  2673 ;;		None
  2674 ;; Return value:  Size  Location     Type
  2675 ;;		None               void
  2676 ;; Registers used:
  2677 ;;		wreg, fsr2l, fsr2h, status,2, status,0, cstack
  2678 ;; Tracked objects:
  2679 ;;		On entry : 0/0
  2680 ;;		On exit  : 0/0
  2681 ;;		Unchanged: 0/0
  2682 ;; Data sizes:     COMRAM   BANK0   BANK1   BANK2   BANK3   BANK4   BANK5   BANK6   BANK7
  2683 ;;      Params:         0       0       0       0       0       0       0       0       0
  2684 ;;      Locals:         0       0       0       0       0       0       0       0       0
  2685 ;;      Temps:          0       0       0       0       0       0       0       0       0
  2686 ;;      Totals:         0       0       0       0       0       0       0       0       0
  2687 ;;Total ram usage:        0 bytes
  2688 ;; Hardware stack levels used:    1
  2689 ;; Hardware stack levels required when called:    1
  2690 ;; This function calls:
  2691 ;;		_usb_set_in_handler
  2692 ;; This function is called by:
  2693 ;;		_cdc_setup
  2694 ;;		_usb_handle_in
  2695 ;; This function uses a non-reentrant model
  2696 ;;
  2697                           
  2698                           	psect	text17
  2699  0022C4                     __ptext17:
  2700                           	opt stack 0
  2701  0022C4                     _cdc_get_line_coding:
  2702                           	opt stack 23
  2703                           
  2704                           ;cdc.c: 192: usb_set_in_handler(0, (usb_handler_t) 0);
  2705                           
  2706                           ;incstack = 0
  2707                           ;incstack = 0
  2708  0022C4  0E00               	movlw	0
  2709  0022C6  6E02               	movwf	?_usb_set_in_handler+1,c
  2710  0022C8  0E00               	movlw	0
  2711  0022CA  6E01               	movwf	?_usb_set_in_handler,c
  2712  0022CC  0E00               	movlw	0
  2713  0022CE  6E04               	movwf	?_usb_set_in_handler+3,c
  2714  0022D0  0E00               	movlw	0
  2715  0022D2  6E03               	movwf	?_usb_set_in_handler+2,c
  2716  0022D4  ECCB  F010         	call	_usb_set_in_handler	;wreg free
  2717  0022D8  0012               	return	
  2718  0022DA                     __end_of_cdc_get_line_coding:
  2719                           	opt stack 0
  2720                           tosu	equ	0xFFF
  2721                           tosh	equ	0xFFE
  2722                           tosl	equ	0xFFD
  2723                           pclath	equ	0xFFA
  2724                           tblptru	equ	0xFF8
  2725                           tblptrh	equ	0xFF7
  2726                           tblptrl	equ	0xFF6
  2727                           tablat	equ	0xFF5
  2728                           prodh	equ	0xFF4
  2729                           prodl	equ	0xFF3
  2730                           postinc0	equ	0xFEE
  2731                           wreg	equ	0xFE8
  2732                           indf1	equ	0xFE7
  2733                           postdec1	equ	0xFE5
  2734                           fsr1h	equ	0xFE2
  2735                           fsr1l	equ	0xFE1
  2736                           indf2	equ	0xFDF
  2737                           postinc2	equ	0xFDE
  2738                           postdec2	equ	0xFDD
  2739                           fsr2h	equ	0xFDA
  2740                           fsr2l	equ	0xFD9
  2741                           status	equ	0xFD8
  2742                           
  2743 ;; *************** function _usb_set_address *****************
  2744 ;; Defined at:
  2745 ;;		line 566 in file "../dp_usb/usb_stack.c"
  2746 ;; Parameters:    Size  Location     Type
  2747 ;;		None
  2748 ;; Auto vars:     Size  Location     Type
  2749 ;;		None
  2750 ;; Return value:  Size  Location     Type
  2751 ;;		None               void
  2752 ;; Registers used:
  2753 ;;		wreg, fsr2l, fsr2h, status,2, status,0, cstack
  2754 ;; Tracked objects:
  2755 ;;		On entry : 0/0
  2756 ;;		On exit  : 0/0
  2757 ;;		Unchanged: 0/0
  2758 ;; Data sizes:     COMRAM   BANK0   BANK1   BANK2   BANK3   BANK4   BANK5   BANK6   BANK7
  2759 ;;      Params:         0       0       0       0       0       0       0       0       0
  2760 ;;      Locals:         0       0       0       0       0       0       0       0       0
  2761 ;;      Temps:          0       0       0       0       0       0       0       0       0
  2762 ;;      Totals:         0       0       0       0       0       0       0       0       0
  2763 ;;Total ram usage:        0 bytes
  2764 ;; Hardware stack levels used:    1
  2765 ;; Hardware stack levels required when called:    1
  2766 ;; This function calls:
  2767 ;;		_usb_set_in_handler
  2768 ;; This function is called by:
  2769 ;;		_usb_handle_StandardDeviceRequest
  2770 ;;		_usb_handle_in
  2771 ;; This function uses a non-reentrant model
  2772 ;;
  2773                           
  2774                           	psect	text18
  2775  0021C4                     __ptext18:
  2776                           	opt stack 0
  2777  0021C4                     _usb_set_address:
  2778                           	opt stack 23
  2779                           
  2780                           ;usb_stack.c: 567: if (0x00u == usb_addr_pending) {
  2781                           
  2782                           ;incstack = 0
  2783                           ;incstack = 0
  2784  0021C4  6659               	tstfsz	_usb_addr_pending,c
  2785  0021C6  D002               	goto	l2765
  2786                           
  2787                           ;usb_stack.c: 568: usb_device_state = DEFAULT_STATE;
  2788  0021C8  0E04               	movlw	4
  2789  0021CA  D001               	goto	L2
  2790  0021CC                     l2765:
  2791                           
  2792                           ;usb_stack.c: 570: usb_device_state = ADDRESS_STATE;
  2793  0021CC  0E10               	movlw	16
  2794  0021CE                     L2:
  2795  0021CE  6E5A               	movwf	_usb_device_state,c	;volatile
  2796                           
  2797                           ;usb_stack.c: 571: }
  2798                           ;usb_stack.c: 572: (UADDR = (usb_addr_pending));
  2799  0021D0  C059  FF6E         	movff	_usb_addr_pending,3950	;volatile
  2800                           
  2801                           ;usb_stack.c: 573: usb_addr_pending = 0xFF;
  2802  0021D4  6859               	setf	_usb_addr_pending,c
  2803                           
  2804                           ;usb_stack.c: 574: usb_set_in_handler(0, (usb_handler_t) 0);
  2805  0021D6  0E00               	movlw	0
  2806  0021D8  6E02               	movwf	?_usb_set_in_handler+1,c
  2807  0021DA  0E00               	movlw	0
  2808  0021DC  6E01               	movwf	?_usb_set_in_handler,c
  2809  0021DE  0E00               	movlw	0
  2810  0021E0  6E04               	movwf	?_usb_set_in_handler+3,c
  2811  0021E2  0E00               	movlw	0
  2812  0021E4  6E03               	movwf	?_usb_set_in_handler+2,c
  2813  0021E6  ECCB  F010         	call	_usb_set_in_handler	;wreg free
  2814  0021EA  0012               	return	
  2815  0021EC                     __end_of_usb_set_address:
  2816                           	opt stack 0
  2817                           tosu	equ	0xFFF
  2818                           tosh	equ	0xFFE
  2819                           tosl	equ	0xFFD
  2820                           pclath	equ	0xFFA
  2821                           tblptru	equ	0xFF8
  2822                           tblptrh	equ	0xFF7
  2823                           tblptrl	equ	0xFF6
  2824                           tablat	equ	0xFF5
  2825                           prodh	equ	0xFF4
  2826                           prodl	equ	0xFF3
  2827                           postinc0	equ	0xFEE
  2828                           wreg	equ	0xFE8
  2829                           indf1	equ	0xFE7
  2830                           postdec1	equ	0xFE5
  2831                           fsr1h	equ	0xFE2
  2832                           fsr1l	equ	0xFE1
  2833                           indf2	equ	0xFDF
  2834                           postinc2	equ	0xFDE
  2835                           postdec2	equ	0xFDD
  2836                           fsr2h	equ	0xFDA
  2837                           fsr2l	equ	0xFD9
  2838                           status	equ	0xFD8
  2839                           
  2840 ;; *************** function _usb_handle_out *****************
  2841 ;; Defined at:
  2842 ;;		line 515 in file "../dp_usb/usb_stack.c"
  2843 ;; Parameters:    Size  Location     Type
  2844 ;;		None
  2845 ;; Auto vars:     Size  Location     Type
  2846 ;;		None
  2847 ;; Return value:  Size  Location     Type
  2848 ;;		None               void
  2849 ;; Registers used:
  2850 ;;		wreg, fsr1l, fsr1h, fsr2l, fsr2h, status,2, status,0, pclat, tosl, prodl, prodh, cstack
  2851 ;; Tracked objects:
  2852 ;;		On entry : 0/0
  2853 ;;		On exit  : 0/0
  2854 ;;		Unchanged: 0/0
  2855 ;; Data sizes:     COMRAM   BANK0   BANK1   BANK2   BANK3   BANK4   BANK5   BANK6   BANK7
  2856 ;;      Params:         0       0       0       0       0       0       0       0       0
  2857 ;;      Locals:         0       0       0       0       0       0       0       0       0
  2858 ;;      Temps:          1       0       0       0       0       0       0       0       0
  2859 ;;      Totals:         1       0       0       0       0       0       0       0       0
  2860 ;;Total ram usage:        1 bytes
  2861 ;; Hardware stack levels used:    1
  2862 ;; Hardware stack levels required when called:    2
  2863 ;; This function calls:
  2864 ;;		Absolute function
  2865 ;;		_cdc_set_line_coding_data
  2866 ;; This function is called by:
  2867 ;;		_usb_handle_transaction
  2868 ;; This function uses a non-reentrant model
  2869 ;;
  2870                           
  2871                           	psect	text19
  2872  001DB4                     __ptext19:
  2873                           	opt stack 0
  2874  001DB4                     _usb_handle_out:
  2875                           	opt stack 23
  2876                           
  2877                           ;usb_stack.c: 516: if (endpoints[((trn_status>>3)&0x0F)].out_handler) {
  2878                           
  2879                           ;incstack = 0
  2880                           ;incstack = 0
  2881  001DB4  C058  F01B         	movff	_trn_status,??_usb_handle_out
  2882  001DB8  90D8               	bcf	status,0,c
  2883  001DBA  321B               	rrcf	??_usb_handle_out,f,c
  2884  001DBC  90D8               	bcf	status,0,c
  2885  001DBE  321B               	rrcf	??_usb_handle_out,f,c
  2886  001DC0  90D8               	bcf	status,0,c
  2887  001DC2  321B               	rrcf	??_usb_handle_out,f,c
  2888  001DC4  0E0F               	movlw	15
  2889  001DC6  161B               	andwf	??_usb_handle_out,f,c
  2890  001DC8  501B               	movf	??_usb_handle_out,w,c
  2891  001DCA  0D04               	mullw	4
  2892  001DCC  0E02               	movlw	2
  2893  001DCE  26F3               	addwf	prodl,f,c
  2894  001DD0  0E00               	movlw	0
  2895  001DD2  22F4               	addwfc	prodh,f,c
  2896  001DD4  0100               	movlb	0	; () banked
  2897  001DD6  0E60               	movlw	low _endpoints
  2898  001DD8  24F3               	addwf	prodl,w,c
  2899  001DDA  6ED9               	movwf	fsr2l,c
  2900  001DDC  0100               	movlb	0	; () banked
  2901  001DDE  0E00               	movlw	high _endpoints
  2902  001DE0  20F4               	addwfc	prodh,w,c
  2903  001DE2  6EDA               	movwf	fsr2h,c
  2904  001DE4  50DE               	movf	postinc2,w,c
  2905  001DE6  10DD               	iorwf	postdec2,w,c
  2906  001DE8  B4D8               	btfsc	status,2,c
  2907  001DEA  D024               	goto	l442
  2908                           
  2909                           ; BSR set to: 0
  2910                           ;usb_stack.c: 517: endpoints[((trn_status>>3)&0x0F)].out_handler();
  2911  001DEC  C058  F01B         	movff	_trn_status,??_usb_handle_out
  2912  001DF0  90D8               	bcf	status,0,c
  2913  001DF2  321B               	rrcf	??_usb_handle_out,f,c
  2914  001DF4  90D8               	bcf	status,0,c
  2915  001DF6  321B               	rrcf	??_usb_handle_out,f,c
  2916  001DF8  90D8               	bcf	status,0,c
  2917  001DFA  321B               	rrcf	??_usb_handle_out,f,c
  2918  001DFC  0E0F               	movlw	15
  2919  001DFE  161B               	andwf	??_usb_handle_out,f,c
  2920  001E00  501B               	movf	??_usb_handle_out,w,c
  2921  001E02  0D04               	mullw	4
  2922  001E04  0E02               	movlw	2
  2923  001E06  26F3               	addwf	prodl,f,c
  2924  001E08  0E00               	movlw	0
  2925  001E0A  22F4               	addwfc	prodh,f,c
  2926  001E0C  0100               	movlb	0	; () banked
  2927  001E0E  0E60               	movlw	low _endpoints
  2928  001E10  24F3               	addwf	prodl,w,c
  2929  001E12  6ED9               	movwf	fsr2l,c
  2930  001E14  0100               	movlb	0	; () banked
  2931  001E16  0E00               	movlw	high _endpoints
  2932  001E18  20F4               	addwfc	prodh,w,c
  2933  001E1A  6EDA               	movwf	fsr2h,c
  2934  001E1C  D801               	call	u1488
  2935  001E1E  D00A               	goto	l442
  2936  001E20                     u1488:
  2937  001E20  0005               	push	
  2938  001E22  6EFA               	movwf	pclath,c
  2939  001E24  50DE               	movf	postinc2,w,c
  2940  001E26  6EFD               	movwf	tosl,c
  2941  001E28  50DE               	movf	postinc2,w,c
  2942  001E2A  6EFE               	movwf	tosh,c
  2943  001E2C  50F8               	movf	tblptru,w,c
  2944  001E2E  6EFF               	movwf	tosu,c
  2945  001E30  50FA               	movf	pclath,w,c
  2946  001E32  0012               	return		;indir
  2947  001E34                     l442:
  2948  001E34  0012               	return	
  2949  001E36                     __end_of_usb_handle_out:
  2950                           	opt stack 0
  2951                           tosu	equ	0xFFF
  2952                           tosh	equ	0xFFE
  2953                           tosl	equ	0xFFD
  2954                           pclath	equ	0xFFA
  2955                           tblptru	equ	0xFF8
  2956                           tblptrh	equ	0xFF7
  2957                           tblptrl	equ	0xFF6
  2958                           tablat	equ	0xFF5
  2959                           prodh	equ	0xFF4
  2960                           prodl	equ	0xFF3
  2961                           postinc0	equ	0xFEE
  2962                           wreg	equ	0xFE8
  2963                           indf1	equ	0xFE7
  2964                           postdec1	equ	0xFE5
  2965                           fsr1h	equ	0xFE2
  2966                           fsr1l	equ	0xFE1
  2967                           indf2	equ	0xFDF
  2968                           postinc2	equ	0xFDE
  2969                           postdec2	equ	0xFDD
  2970                           fsr2h	equ	0xFDA
  2971                           fsr2l	equ	0xFD9
  2972                           status	equ	0xFD8
  2973                           
  2974 ;; *************** function _cdc_set_line_coding_data *****************
  2975 ;; Defined at:
  2976 ;;		line 195 in file "../dp_usb/cdc.c"
  2977 ;; Parameters:    Size  Location     Type
  2978 ;;		None
  2979 ;; Auto vars:     Size  Location     Type
  2980 ;;  dwBaud          4   22[COMRAM] unsigned long 
  2981 ;;  dwBaudrem       4   18[COMRAM] unsigned long 
  2982 ;; Return value:  Size  Location     Type
  2983 ;;		None               void
  2984 ;; Registers used:
  2985 ;;		wreg, fsr1l, fsr1h, fsr2l, fsr2h, status,2, status,0, cstack
  2986 ;; Tracked objects:
  2987 ;;		On entry : 0/0
  2988 ;;		On exit  : 0/0
  2989 ;;		Unchanged: 0/0
  2990 ;; Data sizes:     COMRAM   BANK0   BANK1   BANK2   BANK3   BANK4   BANK5   BANK6   BANK7
  2991 ;;      Params:         0       0       0       0       0       0       0       0       0
  2992 ;;      Locals:         8       0       0       0       0       0       0       0       0
  2993 ;;      Temps:          4       0       0       0       0       0       0       0       0
  2994 ;;      Totals:        12       0       0       0       0       0       0       0       0
  2995 ;;Total ram usage:       12 bytes
  2996 ;; Hardware stack levels used:    1
  2997 ;; Hardware stack levels required when called:    1
  2998 ;; This function calls:
  2999 ;;		_usb_set_in_handler
  3000 ;;		_usb_set_out_handler
  3001 ;;		_usb_ack_dat1
  3002 ;;		_memcpy
  3003 ;;		___lldiv
  3004 ;;		___llmod
  3005 ;; This function is called by:
  3006 ;;		_cdc_setup
  3007 ;;		_usb_handle_out
  3008 ;; This function uses a non-reentrant model
  3009 ;;
  3010                           
  3011                           	psect	text20
  3012  00153E                     __ptext20:
  3013                           	opt stack 0
  3014  00153E                     _cdc_set_line_coding_data:
  3015                           	opt stack 23
  3016                           
  3017                           ;cdc.c: 196: unsigned long dwBaud, dwBaudrem;
  3018                           ;cdc.c: 198: memcpy(&linecodeing, (const void *) EP0_Outbdp->BDADDR, sizeof (struct cdc_
      +                          LineCodeing));
  3019                           
  3020                           ;incstack = 0
  3021                           ;incstack = 0
  3022  00153E  0100               	movlb	0	; () banked
  3023  001540  0E00               	movlw	high _linecodeing
  3024  001542  6E02               	movwf	?_memcpy+1,c
  3025  001544  0100               	movlb	0	; () banked
  3026  001546  0EDE               	movlw	low _linecodeing
  3027  001548  6E01               	movwf	?_memcpy,c
  3028  00154A  EE20 F002          	lfsr	2,2
  3029  00154E  5038               	movf	_EP0_Outbdp,w,c
  3030  001550  26D9               	addwf	fsr2l,f,c
  3031  001552  5039               	movf	_EP0_Outbdp+1,w,c
  3032  001554  22DA               	addwfc	fsr2h,f,c
  3033  001556  CFDE F003          	movff	postinc2,?_memcpy+2
  3034  00155A  CFDD F004          	movff	postdec2,?_memcpy+3
  3035  00155E  0E00               	movlw	0
  3036  001560  6E06               	movwf	?_memcpy+5,c
  3037  001562  0E07               	movlw	7
  3038  001564  6E05               	movwf	?_memcpy+4,c
  3039  001566  EC42  F010         	call	_memcpy	;wreg free
  3040                           
  3041                           ;cdc.c: 200: dwBaud = 12000000 / linecodeing.dwDTERate;
  3042  00156A  0E00               	movlw	0
  3043  00156C  6E01               	movwf	?___lldiv,c
  3044  00156E  0E1B               	movlw	27
  3045  001570  6E02               	movwf	?___lldiv+1,c
  3046  001572  0EB7               	movlw	183
  3047  001574  6E03               	movwf	?___lldiv+2,c
  3048  001576  0E00               	movlw	0
  3049  001578  6E04               	movwf	?___lldiv+3,c
  3050  00157A  C0DE  F005         	movff	_linecodeing,?___lldiv+4
  3051  00157E  C0DF  F006         	movff	_linecodeing+1,?___lldiv+5
  3052  001582  C0E0  F007         	movff	_linecodeing+2,?___lldiv+6
  3053  001586  C0E1  F008         	movff	_linecodeing+3,?___lldiv+7
  3054  00158A  EC97  F00E         	call	___lldiv	;wreg free
  3055  00158E  C004  F01A         	movff	?___lldiv+3,cdc_set_line_coding_data@dwBaud+3
  3056  001592  C003  F019         	movff	?___lldiv+2,cdc_set_line_coding_data@dwBaud+2
  3057  001596  C002  F018         	movff	?___lldiv+1,cdc_set_line_coding_data@dwBaud+1
  3058  00159A  C001  F017         	movff	?___lldiv,cdc_set_line_coding_data@dwBaud
  3059                           
  3060                           ;cdc.c: 201: dwBaudrem = 12000000 % linecodeing.dwDTERate;
  3061  00159E  0E00               	movlw	0
  3062  0015A0  6E01               	movwf	?___llmod,c
  3063  0015A2  0E1B               	movlw	27
  3064  0015A4  6E02               	movwf	?___llmod+1,c
  3065  0015A6  0EB7               	movlw	183
  3066  0015A8  6E03               	movwf	?___llmod+2,c
  3067  0015AA  0E00               	movlw	0
  3068  0015AC  6E04               	movwf	?___llmod+3,c
  3069  0015AE  C0DE  F005         	movff	_linecodeing,?___llmod+4
  3070  0015B2  C0DF  F006         	movff	_linecodeing+1,?___llmod+5
  3071  0015B6  C0E0  F007         	movff	_linecodeing+2,?___llmod+6
  3072  0015BA  C0E1  F008         	movff	_linecodeing+3,?___llmod+7
  3073  0015BE  EC54  F00F         	call	___llmod	;wreg free
  3074  0015C2  C004  F016         	movff	?___llmod+3,cdc_set_line_coding_data@dwBaudrem+3
  3075  0015C6  C003  F015         	movff	?___llmod+2,cdc_set_line_coding_data@dwBaudrem+2
  3076  0015CA  C002  F014         	movff	?___llmod+1,cdc_set_line_coding_data@dwBaudrem+1
  3077  0015CE  C001  F013         	movff	?___llmod,cdc_set_line_coding_data@dwBaudrem
  3078                           
  3079                           ;cdc.c: 202: if (linecodeing.dwDTERate > (dwBaudrem << 1))
  3080  0015D2  90D8               	bcf	status,0,c
  3081  0015D4  3413               	rlcf	cdc_set_line_coding_data@dwBaudrem,w,c
  3082  0015D6  6E0F               	movwf	??_cdc_set_line_coding_data& (0+255),c
  3083  0015D8  3414               	rlcf	cdc_set_line_coding_data@dwBaudrem+1,w,c
  3084  0015DA  6E10               	movwf	(??_cdc_set_line_coding_data+1)& (0+255),c
  3085  0015DC  3415               	rlcf	cdc_set_line_coding_data@dwBaudrem+2,w,c
  3086  0015DE  6E11               	movwf	(??_cdc_set_line_coding_data+2)& (0+255),c
  3087  0015E0  3416               	rlcf	cdc_set_line_coding_data@dwBaudrem+3,w,c
  3088  0015E2  6E12               	movwf	(??_cdc_set_line_coding_data+3)& (0+255),c
  3089  0015E4  0100               	movlb	0	; () banked
  3090  0015E6  0100               	movlb	0	; () banked
  3091  0015E8  51DE               	movf	_linecodeing& (0+255),w,b
  3092  0015EA  5C0F               	subwf	??_cdc_set_line_coding_data,w,c
  3093  0015EC  0100               	movlb	0	; () banked
  3094  0015EE  0100               	movlb	0	; () banked
  3095  0015F0  51DF               	movf	(_linecodeing+1)& (0+255),w,b
  3096  0015F2  5810               	subwfb	??_cdc_set_line_coding_data+1,w,c
  3097  0015F4  0100               	movlb	0	; () banked
  3098  0015F6  0100               	movlb	0	; () banked
  3099  0015F8  51E0               	movf	(_linecodeing+2)& (0+255),w,b
  3100  0015FA  5811               	subwfb	??_cdc_set_line_coding_data+2,w,c
  3101  0015FC  0100               	movlb	0	; () banked
  3102  0015FE  0100               	movlb	0	; () banked
  3103  001600  51E1               	movf	(_linecodeing+3)& (0+255),w,b
  3104  001602  5812               	subwfb	??_cdc_set_line_coding_data+3,w,c
  3105  001604  B0D8               	btfsc	status,0,c
  3106  001606  D005               	goto	l2567
  3107                           
  3108                           ; BSR set to: 0
  3109                           ;cdc.c: 203: dwBaud--;
  3110  001608  0617               	decf	cdc_set_line_coding_data@dwBaud,f,c
  3111  00160A  0E00               	movlw	0
  3112  00160C  5A18               	subwfb	cdc_set_line_coding_data@dwBaud+1,f,c
  3113  00160E  5A19               	subwfb	cdc_set_line_coding_data@dwBaud+2,f,c
  3114  001610  5A1A               	subwfb	cdc_set_line_coding_data@dwBaud+3,f,c
  3115  001612                     l2567:
  3116                           
  3117                           ; BSR set to: 0
  3118                           ;cdc.c: 205: SPBRG = dwBaud & 0xFFu; SPBRGH = (dwBaud >> 8) & 0xFFu;
  3119  001612  C017  FFAF         	movff	cdc_set_line_coding_data@dwBaud,4015	;volatile
  3120                           
  3121                           ; BSR set to: 0
  3122  001616  C018  FFB0         	movff	cdc_set_line_coding_data@dwBaud+1,4016	;volatile
  3123                           
  3124                           ; BSR set to: 0
  3125                           ;cdc.c: 207: usb_set_out_handler(0, (usb_handler_t) 0);
  3126  00161A  0E00               	movlw	0
  3127  00161C  6E02               	movwf	?_usb_set_out_handler+1,c
  3128  00161E  0E00               	movlw	0
  3129  001620  6E01               	movwf	?_usb_set_out_handler,c
  3130  001622  0E00               	movlw	0
  3131  001624  6E04               	movwf	?_usb_set_out_handler+3,c
  3132  001626  0E00               	movlw	0
  3133  001628  6E03               	movwf	?_usb_set_out_handler+2,c
  3134  00162A  EC99  F010         	call	_usb_set_out_handler	;wreg free
  3135                           
  3136                           ;cdc.c: 208: usb_set_in_handler(0, cdc_set_line_coding_status);
  3137  00162E  0E00               	movlw	0
  3138  001630  6E02               	movwf	?_usb_set_in_handler+1,c
  3139  001632  0E00               	movlw	0
  3140  001634  6E01               	movwf	?_usb_set_in_handler,c
  3141  001636  0E22               	movlw	high _cdc_set_line_coding_status
  3142  001638  6E04               	movwf	?_usb_set_in_handler+3,c
  3143  00163A  0E98               	movlw	low _cdc_set_line_coding_status
  3144  00163C  6E03               	movwf	?_usb_set_in_handler+2,c
  3145  00163E  ECCB  F010         	call	_usb_set_in_handler	;wreg free
  3146                           
  3147                           ;cdc.c: 209: usb_ack_dat1(0);
  3148  001642  0E00               	movlw	0
  3149  001644  6E02               	movwf	?_usb_ack_dat1+1,c
  3150  001646  0E00               	movlw	0
  3151  001648  6E01               	movwf	?_usb_ack_dat1,c
  3152  00164A  EC1A  F011         	call	_usb_ack_dat1	;wreg free
  3153                           
  3154                           ;cdc.c: 222: EP0_Outbdp->BDCNT = 8u;
  3155  00164E  EE20 F001          	lfsr	2,1
  3156  001652  5038               	movf	_EP0_Outbdp,w,c
  3157  001654  26D9               	addwf	fsr2l,f,c
  3158  001656  5039               	movf	_EP0_Outbdp+1,w,c
  3159  001658  22DA               	addwfc	fsr2h,f,c
  3160  00165A  0E08               	movlw	8
  3161  00165C  6EDF               	movwf	indf2,c
  3162                           
  3163                           ;cdc.c: 223: EP0_Outbdp->BDSTAT = 0x80 | 0x08;
  3164  00165E  C038  FFD9         	movff	_EP0_Outbdp,fsr2l
  3165  001662  C039  FFDA         	movff	_EP0_Outbdp+1,fsr2h
  3166  001666  0E88               	movlw	136
  3167  001668  6EDF               	movwf	indf2,c
  3168  00166A  0012               	return	
  3169  00166C                     __end_of_cdc_set_line_coding_data:
  3170                           	opt stack 0
  3171                           tosu	equ	0xFFF
  3172                           tosh	equ	0xFFE
  3173                           tosl	equ	0xFFD
  3174                           pclath	equ	0xFFA
  3175                           tblptru	equ	0xFF8
  3176                           tblptrh	equ	0xFF7
  3177                           tblptrl	equ	0xFF6
  3178                           tablat	equ	0xFF5
  3179                           prodh	equ	0xFF4
  3180                           prodl	equ	0xFF3
  3181                           postinc0	equ	0xFEE
  3182                           wreg	equ	0xFE8
  3183                           indf1	equ	0xFE7
  3184                           postdec1	equ	0xFE5
  3185                           fsr1h	equ	0xFE2
  3186                           fsr1l	equ	0xFE1
  3187                           indf2	equ	0xFDF
  3188                           postinc2	equ	0xFDE
  3189                           postdec2	equ	0xFDD
  3190                           fsr2h	equ	0xFDA
  3191                           fsr2l	equ	0xFD9
  3192                           status	equ	0xFD8
  3193                           
  3194 ;; *************** function ___llmod *****************
  3195 ;; Defined at:
  3196 ;;		line 10 in file "C:\Program Files (x86)\Microchip\xc8\v1.21\sources\common\llmod.c"
  3197 ;; Parameters:    Size  Location     Type
  3198 ;;  dividend        4    0[COMRAM] unsigned long 
  3199 ;;  divisor         4    4[COMRAM] unsigned long 
  3200 ;; Auto vars:     Size  Location     Type
  3201 ;;  counter         1    9[COMRAM] unsigned char 
  3202 ;; Return value:  Size  Location     Type
  3203 ;;                  4    0[COMRAM] unsigned long 
  3204 ;; Registers used:
  3205 ;;		wreg, status,2, status,0
  3206 ;; Tracked objects:
  3207 ;;		On entry : 0/0
  3208 ;;		On exit  : 0/0
  3209 ;;		Unchanged: 0/0
  3210 ;; Data sizes:     COMRAM   BANK0   BANK1   BANK2   BANK3   BANK4   BANK5   BANK6   BANK7
  3211 ;;      Params:         8       0       0       0       0       0       0       0       0
  3212 ;;      Locals:         1       0       0       0       0       0       0       0       0
  3213 ;;      Temps:          1       0       0       0       0       0       0       0       0
  3214 ;;      Totals:        10       0       0       0       0       0       0       0       0
  3215 ;;Total ram usage:       10 bytes
  3216 ;; Hardware stack levels used:    1
  3217 ;; This function calls:
  3218 ;;		Nothing
  3219 ;; This function is called by:
  3220 ;;		_cdc_set_line_coding_data
  3221 ;; This function uses a non-reentrant model
  3222 ;;
  3223                           
  3224                           	psect	text21
  3225  001EA8                     __ptext21:
  3226                           	opt stack 0
  3227  001EA8                     ___llmod:
  3228                           	opt stack 23
  3229                           
  3230                           ;incstack = 0
  3231                           ;incstack = 0
  3232  001EA8  5008               	movf	___llmod@divisor+3,w,c
  3233  001EAA  1005               	iorwf	___llmod@divisor,w,c
  3234  001EAC  1006               	iorwf	___llmod@divisor+1,w,c
  3235  001EAE  1007               	iorwf	___llmod@divisor+2,w,c
  3236  001EB0  B4D8               	btfsc	status,2,c
  3237  001EB2  D026               	goto	l996
  3238  001EB4  6E09               	movwf	??___llmod& (0+255),c
  3239  001EB6  0E01               	movlw	1
  3240  001EB8  6E0A               	movwf	___llmod@counter,c
  3241  001EBA  5009               	movf	??___llmod& (0+255),w,c
  3242  001EBC  D006               	goto	l2439
  3243  001EBE                     l2437:
  3244  001EBE  90D8               	bcf	status,0,c
  3245  001EC0  3605               	rlcf	___llmod@divisor,f,c
  3246  001EC2  3606               	rlcf	___llmod@divisor+1,f,c
  3247  001EC4  3607               	rlcf	___llmod@divisor+2,f,c
  3248  001EC6  3608               	rlcf	___llmod@divisor+3,f,c
  3249  001EC8  2A0A               	incf	___llmod@counter,f,c
  3250  001ECA                     l2439:
  3251  001ECA  AE08               	btfss	___llmod@divisor+3,7,c
  3252  001ECC  D7F8               	goto	l2437
  3253  001ECE                     l2441:
  3254  001ECE  5005               	movf	___llmod@divisor,w,c
  3255  001ED0  5C01               	subwf	___llmod@dividend,w,c
  3256  001ED2  5006               	movf	___llmod@divisor+1,w,c
  3257  001ED4  5802               	subwfb	___llmod@dividend+1,w,c
  3258  001ED6  5007               	movf	___llmod@divisor+2,w,c
  3259  001ED8  5803               	subwfb	___llmod@dividend+2,w,c
  3260  001EDA  5008               	movf	___llmod@divisor+3,w,c
  3261  001EDC  5804               	subwfb	___llmod@dividend+3,w,c
  3262  001EDE  A0D8               	btfss	status,0,c
  3263  001EE0  D008               	goto	l2445
  3264  001EE2  5005               	movf	___llmod@divisor,w,c
  3265  001EE4  5E01               	subwf	___llmod@dividend,f,c
  3266  001EE6  5006               	movf	___llmod@divisor+1,w,c
  3267  001EE8  5A02               	subwfb	___llmod@dividend+1,f,c
  3268  001EEA  5007               	movf	___llmod@divisor+2,w,c
  3269  001EEC  5A03               	subwfb	___llmod@dividend+2,f,c
  3270  001EEE  5008               	movf	___llmod@divisor+3,w,c
  3271  001EF0  5A04               	subwfb	___llmod@dividend+3,f,c
  3272  001EF2                     l2445:
  3273  001EF2  90D8               	bcf	status,0,c
  3274  001EF4  3208               	rrcf	___llmod@divisor+3,f,c
  3275  001EF6  3207               	rrcf	___llmod@divisor+2,f,c
  3276  001EF8  3206               	rrcf	___llmod@divisor+1,f,c
  3277  001EFA  3205               	rrcf	___llmod@divisor,f,c
  3278  001EFC  2E0A               	decfsz	___llmod@counter,f,c
  3279  001EFE  D7E7               	goto	l2441
  3280  001F00                     l996:
  3281  001F00  C001  F001         	movff	___llmod@dividend,?___llmod
  3282  001F04  C002  F002         	movff	___llmod@dividend+1,?___llmod+1
  3283  001F08  C003  F003         	movff	___llmod@dividend+2,?___llmod+2
  3284  001F0C  C004  F004         	movff	___llmod@dividend+3,?___llmod+3
  3285  001F10  0012               	return	
  3286  001F12                     __end_of___llmod:
  3287                           	opt stack 0
  3288                           tosu	equ	0xFFF
  3289                           tosh	equ	0xFFE
  3290                           tosl	equ	0xFFD
  3291                           pclath	equ	0xFFA
  3292                           tblptru	equ	0xFF8
  3293                           tblptrh	equ	0xFF7
  3294                           tblptrl	equ	0xFF6
  3295                           tablat	equ	0xFF5
  3296                           prodh	equ	0xFF4
  3297                           prodl	equ	0xFF3
  3298                           postinc0	equ	0xFEE
  3299                           wreg	equ	0xFE8
  3300                           indf1	equ	0xFE7
  3301                           postdec1	equ	0xFE5
  3302                           fsr1h	equ	0xFE2
  3303                           fsr1l	equ	0xFE1
  3304                           indf2	equ	0xFDF
  3305                           postinc2	equ	0xFDE
  3306                           postdec2	equ	0xFDD
  3307                           fsr2h	equ	0xFDA
  3308                           fsr2l	equ	0xFD9
  3309                           status	equ	0xFD8
  3310                           
  3311 ;; *************** function ___lldiv *****************
  3312 ;; Defined at:
  3313 ;;		line 10 in file "C:\Program Files (x86)\Microchip\xc8\v1.21\sources\common\lldiv.c"
  3314 ;; Parameters:    Size  Location     Type
  3315 ;;  dividend        4    0[COMRAM] unsigned long 
  3316 ;;  divisor         4    4[COMRAM] unsigned long 
  3317 ;; Auto vars:     Size  Location     Type
  3318 ;;  quotient        4    9[COMRAM] unsigned long 
  3319 ;;  counter         1   13[COMRAM] unsigned char 
  3320 ;; Return value:  Size  Location     Type
  3321 ;;                  4    0[COMRAM] unsigned long 
  3322 ;; Registers used:
  3323 ;;		wreg, status,2, status,0
  3324 ;; Tracked objects:
  3325 ;;		On entry : 0/0
  3326 ;;		On exit  : 0/0
  3327 ;;		Unchanged: 0/0
  3328 ;; Data sizes:     COMRAM   BANK0   BANK1   BANK2   BANK3   BANK4   BANK5   BANK6   BANK7
  3329 ;;      Params:         8       0       0       0       0       0       0       0       0
  3330 ;;      Locals:         5       0       0       0       0       0       0       0       0
  3331 ;;      Temps:          1       0       0       0       0       0       0       0       0
  3332 ;;      Totals:        14       0       0       0       0       0       0       0       0
  3333 ;;Total ram usage:       14 bytes
  3334 ;; Hardware stack levels used:    1
  3335 ;; This function calls:
  3336 ;;		Nothing
  3337 ;; This function is called by:
  3338 ;;		_cdc_set_line_coding_data
  3339 ;; This function uses a non-reentrant model
  3340 ;;
  3341                           
  3342                           	psect	text22
  3343  001D2E                     __ptext22:
  3344                           	opt stack 0
  3345  001D2E                     ___lldiv:
  3346                           	opt stack 23
  3347                           
  3348                           ;incstack = 0
  3349                           ;incstack = 0
  3350  001D2E  0E00               	movlw	0
  3351  001D30  6E0A               	movwf	___lldiv@quotient,c
  3352  001D32  0E00               	movlw	0
  3353  001D34  6E0B               	movwf	___lldiv@quotient+1,c
  3354  001D36  0E00               	movlw	0
  3355  001D38  6E0C               	movwf	___lldiv@quotient+2,c
  3356  001D3A  0E00               	movlw	0
  3357  001D3C  6E0D               	movwf	___lldiv@quotient+3,c
  3358  001D3E  5008               	movf	___lldiv@divisor+3,w,c
  3359  001D40  1005               	iorwf	___lldiv@divisor,w,c
  3360  001D42  1006               	iorwf	___lldiv@divisor+1,w,c
  3361  001D44  1007               	iorwf	___lldiv@divisor+2,w,c
  3362  001D46  B4D8               	btfsc	status,2,c
  3363  001D48  D02C               	goto	l986
  3364  001D4A  6E09               	movwf	??___lldiv& (0+255),c
  3365  001D4C  0E01               	movlw	1
  3366  001D4E  6E0E               	movwf	___lldiv@counter,c
  3367  001D50  5009               	movf	??___lldiv& (0+255),w,c
  3368  001D52  D006               	goto	l2419
  3369  001D54                     l2417:
  3370  001D54  90D8               	bcf	status,0,c
  3371  001D56  3605               	rlcf	___lldiv@divisor,f,c
  3372  001D58  3606               	rlcf	___lldiv@divisor+1,f,c
  3373  001D5A  3607               	rlcf	___lldiv@divisor+2,f,c
  3374  001D5C  3608               	rlcf	___lldiv@divisor+3,f,c
  3375  001D5E  2A0E               	incf	___lldiv@counter,f,c
  3376  001D60                     l2419:
  3377  001D60  AE08               	btfss	___lldiv@divisor+3,7,c
  3378  001D62  D7F8               	goto	l2417
  3379  001D64                     l2421:
  3380  001D64  90D8               	bcf	status,0,c
  3381  001D66  360A               	rlcf	___lldiv@quotient,f,c
  3382  001D68  360B               	rlcf	___lldiv@quotient+1,f,c
  3383  001D6A  360C               	rlcf	___lldiv@quotient+2,f,c
  3384  001D6C  360D               	rlcf	___lldiv@quotient+3,f,c
  3385  001D6E  5005               	movf	___lldiv@divisor,w,c
  3386  001D70  5C01               	subwf	___lldiv@dividend,w,c
  3387  001D72  5006               	movf	___lldiv@divisor+1,w,c
  3388  001D74  5802               	subwfb	___lldiv@dividend+1,w,c
  3389  001D76  5007               	movf	___lldiv@divisor+2,w,c
  3390  001D78  5803               	subwfb	___lldiv@dividend+2,w,c
  3391  001D7A  5008               	movf	___lldiv@divisor+3,w,c
  3392  001D7C  5804               	subwfb	___lldiv@dividend+3,w,c
  3393  001D7E  A0D8               	btfss	status,0,c
  3394  001D80  D009               	goto	l2429
  3395  001D82  5005               	movf	___lldiv@divisor,w,c
  3396  001D84  5E01               	subwf	___lldiv@dividend,f,c
  3397  001D86  5006               	movf	___lldiv@divisor+1,w,c
  3398  001D88  5A02               	subwfb	___lldiv@dividend+1,f,c
  3399  001D8A  5007               	movf	___lldiv@divisor+2,w,c
  3400  001D8C  5A03               	subwfb	___lldiv@dividend+2,f,c
  3401  001D8E  5008               	movf	___lldiv@divisor+3,w,c
  3402  001D90  5A04               	subwfb	___lldiv@dividend+3,f,c
  3403  001D92  800A               	bsf	___lldiv@quotient,0,c
  3404  001D94                     l2429:
  3405  001D94  90D8               	bcf	status,0,c
  3406  001D96  3208               	rrcf	___lldiv@divisor+3,f,c
  3407  001D98  3207               	rrcf	___lldiv@divisor+2,f,c
  3408  001D9A  3206               	rrcf	___lldiv@divisor+1,f,c
  3409  001D9C  3205               	rrcf	___lldiv@divisor,f,c
  3410  001D9E  2E0E               	decfsz	___lldiv@counter,f,c
  3411  001DA0  D7E1               	goto	l2421
  3412  001DA2                     l986:
  3413  001DA2  C00A  F001         	movff	___lldiv@quotient,?___lldiv
  3414  001DA6  C00B  F002         	movff	___lldiv@quotient+1,?___lldiv+1
  3415  001DAA  C00C  F003         	movff	___lldiv@quotient+2,?___lldiv+2
  3416  001DAE  C00D  F004         	movff	___lldiv@quotient+3,?___lldiv+3
  3417  001DB2  0012               	return	
  3418  001DB4                     __end_of___lldiv:
  3419                           	opt stack 0
  3420                           tosu	equ	0xFFF
  3421                           tosh	equ	0xFFE
  3422                           tosl	equ	0xFFD
  3423                           pclath	equ	0xFFA
  3424                           tblptru	equ	0xFF8
  3425                           tblptrh	equ	0xFF7
  3426                           tblptrl	equ	0xFF6
  3427                           tablat	equ	0xFF5
  3428                           prodh	equ	0xFF4
  3429                           prodl	equ	0xFF3
  3430                           postinc0	equ	0xFEE
  3431                           wreg	equ	0xFE8
  3432                           indf1	equ	0xFE7
  3433                           postdec1	equ	0xFE5
  3434                           fsr1h	equ	0xFE2
  3435                           fsr1l	equ	0xFE1
  3436                           indf2	equ	0xFDF
  3437                           postinc2	equ	0xFDE
  3438                           postdec2	equ	0xFDD
  3439                           fsr2h	equ	0xFDA
  3440                           fsr2l	equ	0xFD9
  3441                           status	equ	0xFD8
  3442                           
  3443 ;; *************** function _usb_handle_setup *****************
  3444 ;; Defined at:
  3445 ;;		line 240 in file "../dp_usb/usb_stack.c"
  3446 ;; Parameters:    Size  Location     Type
  3447 ;;		None
  3448 ;; Auto vars:     Size  Location     Type
  3449 ;;		None
  3450 ;; Return value:  Size  Location     Type
  3451 ;;		None               void
  3452 ;; Registers used:
  3453 ;;		wreg, fsr1l, fsr1h, fsr2l, fsr2h, status,2, status,0, pclat, tosl, tblptrl, tblptrh, tblptru, prodl, prodh, cstack
  3454 ;; Tracked objects:
  3455 ;;		On entry : 0/0
  3456 ;;		On exit  : 0/0
  3457 ;;		Unchanged: 0/0
  3458 ;; Data sizes:     COMRAM   BANK0   BANK1   BANK2   BANK3   BANK4   BANK5   BANK6   BANK7
  3459 ;;      Params:         0       0       0       0       0       0       0       0       0
  3460 ;;      Locals:         2       0       0       0       0       0       0       0       0
  3461 ;;      Temps:          4       0       0       0       0       0       0       0       0
  3462 ;;      Totals:         6       0       0       0       0       0       0       0       0
  3463 ;;Total ram usage:        6 bytes
  3464 ;; Hardware stack levels used:    1
  3465 ;; Hardware stack levels required when called:    3
  3466 ;; This function calls:
  3467 ;;		Absolute function
  3468 ;;		_cdc_setup
  3469 ;;		_usb_RequestError
  3470 ;;		_usb_handle_StandardDeviceRequest
  3471 ;;		_usb_handle_StandardInterfaceRequest
  3472 ;;		_usb_handle_StandardEndpointRequest
  3473 ;; This function is called by:
  3474 ;;		_usb_handle_transaction
  3475 ;; This function uses a non-reentrant model
  3476 ;;
  3477                           
  3478                           	psect	text23
  3479  0010A8                     __ptext23:
  3480                           	opt stack 0
  3481  0010A8                     _usb_handle_setup:
  3482                           	opt stack 22
  3483                           
  3484                           ;usb_stack.c: 242: EP0_Inbdp->BDSTAT = 0x08;
  3485                           
  3486                           ;incstack = 0
  3487                           ;incstack = 0
  3488  0010A8  C036  FFD9         	movff	_EP0_Inbdp,fsr2l
  3489  0010AC  C037  FFDA         	movff	_EP0_Inbdp+1,fsr2h
  3490  0010B0  0E08               	movlw	8
  3491  0010B2  6EDF               	movwf	indf2,c
  3492                           
  3493                           ;usb_stack.c: 244: UCONbits.PKTDIS = 0;
  3494  0010B4  986D               	bcf	3949,4,c	;volatile
  3495                           
  3496                           ;usb_stack.c: 246: switch (EP0_Outbdp->BDADDR[0] & 0b01100000) {
  3497  0010B6  D061               	goto	l2927
  3498  0010B8                     l2907:
  3499                           
  3500                           ;usb_stack.c: 250: usb_handle_StandardDeviceRequest(EP0_Outbdp);
  3501  0010B8  C038  F010         	movff	_EP0_Outbdp,?_usb_handle_StandardDeviceRequest
  3502  0010BC  C039  F011         	movff	_EP0_Outbdp+1,?_usb_handle_StandardDeviceRequest+1
  3503  0010C0  EC57  F004         	call	_usb_handle_StandardDeviceRequest	;wreg free
  3504                           
  3505                           ;usb_stack.c: 251: break;
  3506  0010C4  D07B               	goto	l2929
  3507  0010C6                     l2909:
  3508                           
  3509                           ;usb_stack.c: 253: usb_handle_StandardInterfaceRequest(EP0_Outbdp);
  3510  0010C6  C038  F003         	movff	_EP0_Outbdp,?_usb_handle_StandardInterfaceRequest
  3511  0010CA  C039  F004         	movff	_EP0_Outbdp+1,?_usb_handle_StandardInterfaceRequest+1
  3512  0010CE  EC36  F00B         	call	_usb_handle_StandardInterfaceRequest	;wreg free
  3513                           
  3514                           ;usb_stack.c: 254: break;
  3515  0010D2  D074               	goto	l2929
  3516  0010D4                     l2911:
  3517                           
  3518                           ;usb_stack.c: 256: usb_handle_StandardEndpointRequest(EP0_Outbdp);
  3519  0010D4  C038  F003         	movff	_EP0_Outbdp,?_usb_handle_StandardEndpointRequest
  3520  0010D8  C039  F004         	movff	_EP0_Outbdp+1,?_usb_handle_StandardEndpointRequest+1
  3521  0010DC  EC29  F007         	call	_usb_handle_StandardEndpointRequest	;wreg free
  3522                           
  3523                           ;usb_stack.c: 257: break;
  3524  0010E0  D06D               	goto	l2929
  3525  0010E2                     l2913:
  3526                           
  3527                           ;usb_stack.c: 259: usb_RequestError();
  3528  0010E2  ECF6  F010         	call	_usb_RequestError	;wreg free
  3529                           
  3530                           ;usb_stack.c: 260: }
  3531  0010E6  D06A               	goto	l2929
  3532  0010E8                     l2915:
  3533  0010E8  EE20 F002          	lfsr	2,2
  3534  0010EC  5038               	movf	_EP0_Outbdp,w,c
  3535  0010EE  26D9               	addwf	fsr2l,f,c
  3536  0010F0  5039               	movf	_EP0_Outbdp+1,w,c
  3537  0010F2  22DA               	addwfc	fsr2h,f,c
  3538  0010F4  CFDE F022          	movff	postinc2,??_usb_handle_setup
  3539  0010F8  CFDD F023          	movff	postdec2,??_usb_handle_setup+1
  3540  0010FC  C022  FFD9         	movff	??_usb_handle_setup,fsr2l
  3541  001100  C023  FFDA         	movff	??_usb_handle_setup+1,fsr2h
  3542  001104  50DF               	movf	indf2,w,c
  3543  001106  0B03               	andlw	3
  3544  001108  6E24               	movwf	(??_usb_handle_setup+2)& (0+255),c
  3545  00110A  6A25               	clrf	(??_usb_handle_setup+3)& (0+255),c
  3546                           
  3547                           ; Switch on 2 bytes has been partitioned into a top level switch of size 1, and 1 sub-sw
      +                          itches
  3548                           ; Switch size 1, requested type "space"
  3549                           ; Number of cases is 1, Range of values is 0 to 0
  3550                           ; switch strategies available:
  3551                           ; Name         Instructions Cycles
  3552                           ; simple_byte            4     3 (average)
  3553                           ;	Chosen strategy is simple_byte
  3554  00110C  5025               	movf	??_usb_handle_setup+3,w,c
  3555  00110E  0A00               	xorlw	0	; case 0
  3556  001110  A4D8               	btfss	status,2,c
  3557  001112  D7E7               	goto	l2913
  3558                           
  3559                           ; Switch size 1, requested type "space"
  3560                           ; Number of cases is 3, Range of values is 0 to 2
  3561                           ; switch strategies available:
  3562                           ; Name         Instructions Cycles
  3563                           ; simple_byte           10     6 (average)
  3564                           ;	Chosen strategy is simple_byte
  3565  001114  5024               	movf	??_usb_handle_setup+2,w,c
  3566  001116  0A00               	xorlw	0	; case 0
  3567  001118  B4D8               	btfsc	status,2,c
  3568  00111A  D7CE               	goto	l2907
  3569  00111C  0A01               	xorlw	1	; case 1
  3570  00111E  B4D8               	btfsc	status,2,c
  3571  001120  D7D2               	goto	l2909
  3572  001122  0A03               	xorlw	3	; case 2
  3573  001124  B4D8               	btfsc	status,2,c
  3574  001126  D7D6               	goto	l2911
  3575  001128  D7DC               	goto	l2913
  3576  00112A                     l2917:
  3577                           
  3578                           ;usb_stack.c: 263: if (class_setup_handler) class_setup_handler();
  3579  00112A  0100               	movlb	0	; () banked
  3580  00112C  0100               	movlb	0	; () banked
  3581  00112E  51DB               	movf	(_class_setup_handler+1)& (0+255),w,b
  3582  001130  11DA               	iorwf	_class_setup_handler& (0+255),w,b
  3583  001132  B4D8               	btfsc	status,2,c
  3584  001134  D043               	goto	l2929
  3585                           
  3586                           ; BSR set to: 0
  3587  001136  D801               	call	u1708
  3588  001138  D041               	goto	l2929
  3589  00113A                     u1708:
  3590  00113A  0005               	push	
  3591  00113C  0100               	movlb	0	; () banked
  3592  00113E  6EFA               	movwf	pclath,c
  3593  001140  0100               	movlb	0	; () banked
  3594  001142  51DA               	movf	_class_setup_handler& (0+255),w,b
  3595  001144  6EFD               	movwf	tosl,c
  3596  001146  0100               	movlb	0	; () banked
  3597  001148  51DB               	movf	(_class_setup_handler+1)& (0+255),w,b
  3598  00114A  6EFE               	movwf	tosh,c
  3599  00114C  50F8               	movf	tblptru,w,c
  3600  00114E  6EFF               	movwf	tosu,c
  3601  001150  50FA               	movf	pclath,w,c
  3602  001152  0012               	return		;indir
  3603  001154                     l2921:
  3604                           
  3605                           ;usb_stack.c: 268: if (vendor_setup_handler) vendor_setup_handler();
  3606  001154  5047               	movf	_vendor_setup_handler+1,w,c
  3607  001156  1046               	iorwf	_vendor_setup_handler,w,c
  3608  001158  B4D8               	btfsc	status,2,c
  3609  00115A  D030               	goto	l2929
  3610  00115C  D801               	call	u1728
  3611  00115E  D02E               	goto	l2929
  3612  001160                     u1728:
  3613  001160  0005               	push	
  3614  001162  6EFA               	movwf	pclath,c
  3615  001164  5046               	movf	_vendor_setup_handler,w,c
  3616  001166  6EFD               	movwf	tosl,c
  3617  001168  5047               	movf	_vendor_setup_handler+1,w,c
  3618  00116A  6EFE               	movwf	tosh,c
  3619  00116C  50F8               	movf	tblptru,w,c
  3620  00116E  6EFF               	movwf	tosu,c
  3621  001170  50FA               	movf	pclath,w,c
  3622  001172  0012               	return		;indir
  3623  001174                     l2925:
  3624                           
  3625                           ;usb_stack.c: 271: usb_RequestError();
  3626  001174  ECF6  F010         	call	_usb_RequestError	;wreg free
  3627                           
  3628                           ;usb_stack.c: 272: }
  3629  001178  D021               	goto	l2929
  3630  00117A                     l2927:
  3631  00117A  EE20 F002          	lfsr	2,2
  3632  00117E  5038               	movf	_EP0_Outbdp,w,c
  3633  001180  26D9               	addwf	fsr2l,f,c
  3634  001182  5039               	movf	_EP0_Outbdp+1,w,c
  3635  001184  22DA               	addwfc	fsr2h,f,c
  3636  001186  CFDE F022          	movff	postinc2,??_usb_handle_setup
  3637  00118A  CFDD F023          	movff	postdec2,??_usb_handle_setup+1
  3638  00118E  C022  FFD9         	movff	??_usb_handle_setup,fsr2l
  3639  001192  C023  FFDA         	movff	??_usb_handle_setup+1,fsr2h
  3640  001196  50DF               	movf	indf2,w,c
  3641  001198  0B60               	andlw	96
  3642  00119A  6E24               	movwf	(??_usb_handle_setup+2)& (0+255),c
  3643  00119C  6A25               	clrf	(??_usb_handle_setup+3)& (0+255),c
  3644                           
  3645                           ; Switch on 2 bytes has been partitioned into a top level switch of size 1, and 1 sub-sw
      +                          itches
  3646                           ; Switch size 1, requested type "space"
  3647                           ; Number of cases is 1, Range of values is 0 to 0
  3648                           ; switch strategies available:
  3649                           ; Name         Instructions Cycles
  3650                           ; simple_byte            4     3 (average)
  3651                           ;	Chosen strategy is simple_byte
  3652  00119E  5025               	movf	??_usb_handle_setup+3,w,c
  3653  0011A0  0A00               	xorlw	0	; case 0
  3654  0011A2  A4D8               	btfss	status,2,c
  3655  0011A4  D7E7               	goto	l2925
  3656                           
  3657                           ; Switch size 1, requested type "space"
  3658                           ; Number of cases is 3, Range of values is 0 to 64
  3659                           ; switch strategies available:
  3660                           ; Name         Instructions Cycles
  3661                           ; simple_byte           10     6 (average)
  3662                           ;	Chosen strategy is simple_byte
  3663  0011A6  5024               	movf	??_usb_handle_setup+2,w,c
  3664  0011A8  0A00               	xorlw	0	; case 0
  3665  0011AA  B4D8               	btfsc	status,2,c
  3666  0011AC  D79D               	goto	l2915
  3667  0011AE  0A20               	xorlw	32	; case 32
  3668  0011B0  B4D8               	btfsc	status,2,c
  3669  0011B2  D7BB               	goto	l2917
  3670  0011B4  0A60               	xorlw	96	; case 64
  3671  0011B6  B4D8               	btfsc	status,2,c
  3672  0011B8  D7CD               	goto	l2921
  3673  0011BA  D7DC               	goto	l2925
  3674  0011BC                     l2929:
  3675                           
  3676                           ;usb_stack.c: 275: EP0_Outbdp->BDCNT = 8u;
  3677  0011BC  EE20 F001          	lfsr	2,1
  3678  0011C0  5038               	movf	_EP0_Outbdp,w,c
  3679  0011C2  26D9               	addwf	fsr2l,f,c
  3680  0011C4  5039               	movf	_EP0_Outbdp+1,w,c
  3681  0011C6  22DA               	addwfc	fsr2h,f,c
  3682  0011C8  0E08               	movlw	8
  3683  0011CA  6EDF               	movwf	indf2,c
  3684                           
  3685                           ;usb_stack.c: 283: EP0_Outbdp->BDSTAT = (!(EP0_Outbdp->BDADDR[0] & 0b10000000) &&
  3686                           ;usb_stack.c: 284: (EP0_Outbdp->BDADDR[6] || EP0_Outbdp->BDADDR[7])) ? 0x80 + 0x40 + 0x0
      +                          8 : 0x80 + 0x08;
  3687  0011CC  EE20 F002          	lfsr	2,2
  3688  0011D0  5038               	movf	_EP0_Outbdp,w,c
  3689  0011D2  26D9               	addwf	fsr2l,f,c
  3690  0011D4  5039               	movf	_EP0_Outbdp+1,w,c
  3691  0011D6  22DA               	addwfc	fsr2h,f,c
  3692  0011D8  CFDE F022          	movff	postinc2,??_usb_handle_setup
  3693  0011DC  CFDD F023          	movff	postdec2,??_usb_handle_setup+1
  3694  0011E0  C022  FFD9         	movff	??_usb_handle_setup,fsr2l
  3695  0011E4  C023  FFDA         	movff	??_usb_handle_setup+1,fsr2h
  3696  0011E8  50DF               	movf	indf2,w,c
  3697  0011EA  6E24               	movwf	(??_usb_handle_setup+2)& (0+255),c
  3698  0011EC  BE24               	btfsc	??_usb_handle_setup+2,7,c
  3699  0011EE  D026               	goto	l2935
  3700  0011F0  EE20 F002          	lfsr	2,2
  3701  0011F4  5038               	movf	_EP0_Outbdp,w,c
  3702  0011F6  26D9               	addwf	fsr2l,f,c
  3703  0011F8  5039               	movf	_EP0_Outbdp+1,w,c
  3704  0011FA  22DA               	addwfc	fsr2h,f,c
  3705  0011FC  CFDE F022          	movff	postinc2,??_usb_handle_setup
  3706  001200  CFDD F023          	movff	postdec2,??_usb_handle_setup+1
  3707  001204  0E06               	movlw	6
  3708  001206  2422               	addwf	??_usb_handle_setup,w,c
  3709  001208  6ED9               	movwf	fsr2l,c
  3710  00120A  0E00               	movlw	0
  3711  00120C  2023               	addwfc	??_usb_handle_setup+1,w,c
  3712  00120E  6EDA               	movwf	fsr2h,c
  3713  001210  50DF               	movf	indf2,w,c
  3714  001212  A4D8               	btfss	status,2,c
  3715  001214  D017               	goto	l2937
  3716  001216  EE20 F002          	lfsr	2,2
  3717  00121A  5038               	movf	_EP0_Outbdp,w,c
  3718  00121C  26D9               	addwf	fsr2l,f,c
  3719  00121E  5039               	movf	_EP0_Outbdp+1,w,c
  3720  001220  22DA               	addwfc	fsr2h,f,c
  3721  001222  CFDE F022          	movff	postinc2,??_usb_handle_setup
  3722  001226  CFDD F023          	movff	postdec2,??_usb_handle_setup+1
  3723  00122A  0E07               	movlw	7
  3724  00122C  2422               	addwf	??_usb_handle_setup,w,c
  3725  00122E  6ED9               	movwf	fsr2l,c
  3726  001230  0E00               	movlw	0
  3727  001232  2023               	addwfc	??_usb_handle_setup+1,w,c
  3728  001234  6EDA               	movwf	fsr2h,c
  3729  001236  50DF               	movf	indf2,w,c
  3730  001238  A4D8               	btfss	status,2,c
  3731  00123A  D004               	goto	l2937
  3732  00123C                     l2935:
  3733  00123C  0E00               	movlw	0
  3734  00123E  6E27               	movwf	_usb_handle_setup$352+1,c
  3735  001240  0E88               	movlw	136
  3736  001242  D003               	goto	L3
  3737  001244                     l2937:
  3738  001244  0E00               	movlw	0
  3739  001246  6E27               	movwf	_usb_handle_setup$352+1,c
  3740  001248  0EC8               	movlw	200
  3741  00124A                     L3:
  3742  00124A  6E26               	movwf	_usb_handle_setup$352,c
  3743  00124C  C038  FFD9         	movff	_EP0_Outbdp,fsr2l
  3744  001250  C039  FFDA         	movff	_EP0_Outbdp+1,fsr2h
  3745  001254  C026  FFDF         	movff	_usb_handle_setup$352,indf2
  3746  001258  0012               	return	
  3747  00125A                     __end_of_usb_handle_setup:
  3748                           	opt stack 0
  3749                           tosu	equ	0xFFF
  3750                           tosh	equ	0xFFE
  3751                           tosl	equ	0xFFD
  3752                           pclath	equ	0xFFA
  3753                           tblptru	equ	0xFF8
  3754                           tblptrh	equ	0xFF7
  3755                           tblptrl	equ	0xFF6
  3756                           tablat	equ	0xFF5
  3757                           prodh	equ	0xFF4
  3758                           prodl	equ	0xFF3
  3759                           postinc0	equ	0xFEE
  3760                           wreg	equ	0xFE8
  3761                           indf1	equ	0xFE7
  3762                           postdec1	equ	0xFE5
  3763                           fsr1h	equ	0xFE2
  3764                           fsr1l	equ	0xFE1
  3765                           indf2	equ	0xFDF
  3766                           postinc2	equ	0xFDE
  3767                           postdec2	equ	0xFDD
  3768                           fsr2h	equ	0xFDA
  3769                           fsr2l	equ	0xFD9
  3770                           status	equ	0xFD8
  3771                           
  3772 ;; *************** function _usb_handle_StandardEndpointRequest *****************
  3773 ;; Defined at:
  3774 ;;		line 439 in file "../dp_usb/usb_stack.c"
  3775 ;; Parameters:    Size  Location     Type
  3776 ;;  bdp             2    2[COMRAM] PTR struct BDENTRY
  3777 ;;		 -> NULL(0), usb_bdt(24), 
  3778 ;; Auto vars:     Size  Location     Type
  3779 ;;  packet          2   12[COMRAM] PTR unsigned char 
  3780 ;;		 -> usb_ep0_in_buf(8), usb_ep0_out_buf(8), cdc_In_bufferB(64), cdc_Out_bufferB(64), 
  3781 ;;		 -> cdc_Out_bufferA(64), cdc_In_bufferA(64), cdc_acm_in_buffer(10), 
  3782 ;;  epbd            2    9[COMRAM] PTR struct BDENTRY
  3783 ;;		 -> usb_bdt(24), 
  3784 ;;  pUEP            2    6[COMRAM] PTR unsigned char 
  3785 ;;		 -> UEP0(1), 
  3786 ;;  dir             1   11[COMRAM] unsigned char 
  3787 ;;  epnum           1    8[COMRAM] unsigned char 
  3788 ;; Return value:  Size  Location     Type
  3789 ;;		None               void
  3790 ;; Registers used:
  3791 ;;		wreg, fsr2l, fsr2h, status,2, status,0, prodl, prodh, cstack
  3792 ;; Tracked objects:
  3793 ;;		On entry : 0/0
  3794 ;;		On exit  : 0/0
  3795 ;;		Unchanged: 0/0
  3796 ;; Data sizes:     COMRAM   BANK0   BANK1   BANK2   BANK3   BANK4   BANK5   BANK6   BANK7
  3797 ;;      Params:         2       0       0       0       0       0       0       0       0
  3798 ;;      Locals:         8       0       0       0       0       0       0       0       0
  3799 ;;      Temps:          2       0       0       0       0       0       0       0       0
  3800 ;;      Totals:        12       0       0       0       0       0       0       0       0
  3801 ;;Total ram usage:       12 bytes
  3802 ;; Hardware stack levels used:    1
  3803 ;; Hardware stack levels required when called:    1
  3804 ;; This function calls:
  3805 ;;		_usb_ack_dat1
  3806 ;;		_usb_RequestError
  3807 ;; This function is called by:
  3808 ;;		_usb_handle_setup
  3809 ;; This function uses a non-reentrant model
  3810 ;;
  3811                           
  3812                           	psect	text24
  3813  000E52                     __ptext24:
  3814                           	opt stack 0
  3815  000E52                     _usb_handle_StandardEndpointRequest:
  3816                           	opt stack 23
  3817                           
  3818                           ;usb_stack.c: 440: BYTE *packet;
  3819                           ;usb_stack.c: 441: BYTE epnum;
  3820                           ;usb_stack.c: 442: BYTE dir;
  3821                           ;usb_stack.c: 443: BDentry *epbd;
  3822                           ;usb_stack.c: 444: usb_uep_t *pUEP;
  3823                           ;usb_stack.c: 446: packet = bdp->BDADDR;
  3824                           
  3825                           ;incstack = 0
  3826                           ;incstack = 0
  3827  000E52  EE20 F002          	lfsr	2,2
  3828  000E56  5003               	movf	usb_handle_StandardEndpointRequest@bdp,w,c
  3829  000E58  26D9               	addwf	fsr2l,f,c
  3830  000E5A  5004               	movf	usb_handle_StandardEndpointRequest@bdp+1,w,c
  3831  000E5C  22DA               	addwfc	fsr2h,f,c
  3832  000E5E  CFDE F00D          	movff	postinc2,usb_handle_StandardEndpointRequest@packet
  3833  000E62  CFDD F00E          	movff	postdec2,usb_handle_StandardEndpointRequest@packet+1
  3834                           
  3835                           ;usb_stack.c: 448: switch (packet[1]) {
  3836  000E66  D10D               	goto	l2733
  3837  000E68                     l2689:
  3838                           
  3839                           ;usb_stack.c: 450: EP0_Inbdp->BDADDR[0] = 0x00;
  3840  000E68  EE20 F002          	lfsr	2,2
  3841  000E6C  5036               	movf	_EP0_Inbdp,w,c
  3842  000E6E  26D9               	addwf	fsr2l,f,c
  3843  000E70  5037               	movf	_EP0_Inbdp+1,w,c
  3844  000E72  22DA               	addwfc	fsr2h,f,c
  3845  000E74  CFDE F005          	movff	postinc2,??_usb_handle_StandardEndpointRequest
  3846  000E78  CFDD F006          	movff	postdec2,??_usb_handle_StandardEndpointRequest+1
  3847  000E7C  C005  FFD9         	movff	??_usb_handle_StandardEndpointRequest,fsr2l
  3848  000E80  C006  FFDA         	movff	??_usb_handle_StandardEndpointRequest+1,fsr2h
  3849  000E84  0E00               	movlw	0
  3850  000E86  6EDF               	movwf	indf2,c
  3851                           
  3852                           ;usb_stack.c: 451: EP0_Inbdp->BDADDR[1] = 0x00;
  3853  000E88  EE20 F002          	lfsr	2,2
  3854  000E8C  5036               	movf	_EP0_Inbdp,w,c
  3855  000E8E  26D9               	addwf	fsr2l,f,c
  3856  000E90  5037               	movf	_EP0_Inbdp+1,w,c
  3857  000E92  22DA               	addwfc	fsr2h,f,c
  3858  000E94  CFDE F005          	movff	postinc2,??_usb_handle_StandardEndpointRequest
  3859  000E98  CFDD F006          	movff	postdec2,??_usb_handle_StandardEndpointRequest+1
  3860  000E9C  0E01               	movlw	1
  3861  000E9E  2405               	addwf	??_usb_handle_StandardEndpointRequest,w,c
  3862  000EA0  6ED9               	movwf	fsr2l,c
  3863  000EA2  0E00               	movlw	0
  3864  000EA4  2006               	addwfc	??_usb_handle_StandardEndpointRequest+1,w,c
  3865  000EA6  6EDA               	movwf	fsr2h,c
  3866  000EA8  0E00               	movlw	0
  3867  000EAA  6EDF               	movwf	indf2,c
  3868                           
  3869                           ;usb_stack.c: 452: epnum = packet[4] & 0x0F;
  3870  000EAC  EE20 F004          	lfsr	2,4
  3871  000EB0  500D               	movf	usb_handle_StandardEndpointRequest@packet,w,c
  3872  000EB2  26D9               	addwf	fsr2l,f,c
  3873  000EB4  500E               	movf	usb_handle_StandardEndpointRequest@packet+1,w,c
  3874  000EB6  22DA               	addwfc	fsr2h,f,c
  3875  000EB8  50DF               	movf	indf2,w,c
  3876  000EBA  0B0F               	andlw	15
  3877  000EBC  6E09               	movwf	usb_handle_StandardEndpointRequest@epnum,c
  3878                           
  3879                           ;usb_stack.c: 453: dir = packet[4] >> 7;
  3880  000EBE  EE20 F004          	lfsr	2,4
  3881  000EC2  500D               	movf	usb_handle_StandardEndpointRequest@packet,w,c
  3882  000EC4  26D9               	addwf	fsr2l,f,c
  3883  000EC6  500E               	movf	usb_handle_StandardEndpointRequest@packet+1,w,c
  3884  000EC8  22DA               	addwfc	fsr2h,f,c
  3885  000ECA  50DF               	movf	indf2,w,c
  3886  000ECC  6E05               	movwf	??_usb_handle_StandardEndpointRequest& (0+255),c
  3887  000ECE  0E00               	movlw	0
  3888  000ED0  BE05               	btfsc	??_usb_handle_StandardEndpointRequest,7,c
  3889  000ED2  0E01               	movlw	1
  3890  000ED4  6E05               	movwf	??_usb_handle_StandardEndpointRequest,c
  3891  000ED6  5005               	movf	??_usb_handle_StandardEndpointRequest,w,c
  3892  000ED8  6E0C               	movwf	usb_handle_StandardEndpointRequest@dir,c
  3893                           
  3894                           ;usb_stack.c: 454: epbd = &usb_bdt[( 2*(epnum)+(dir) )];
  3895  000EDA  500C               	movf	usb_handle_StandardEndpointRequest@dir,w,c
  3896  000EDC  C009  F005         	movff	usb_handle_StandardEndpointRequest@epnum,??_usb_handle_StandardEndpointRequest
  3897  000EE0  6A06               	clrf	(??_usb_handle_StandardEndpointRequest+1)& (0+255),c
  3898  000EE2  90D8               	bcf	status,0,c
  3899  000EE4  3605               	rlcf	??_usb_handle_StandardEndpointRequest,f,c
  3900  000EE6  3606               	rlcf	??_usb_handle_StandardEndpointRequest+1,f,c
  3901  000EE8  2605               	addwf	??_usb_handle_StandardEndpointRequest,f,c
  3902  000EEA  0E00               	movlw	0
  3903  000EEC  2206               	addwfc	??_usb_handle_StandardEndpointRequest+1,f,c
  3904  000EEE  90D8               	bcf	status,0,c
  3905  000EF0  3605               	rlcf	??_usb_handle_StandardEndpointRequest,f,c
  3906  000EF2  3606               	rlcf	??_usb_handle_StandardEndpointRequest+1,f,c
  3907  000EF4  90D8               	bcf	status,0,c
  3908  000EF6  3605               	rlcf	??_usb_handle_StandardEndpointRequest,f,c
  3909  000EF8  3606               	rlcf	??_usb_handle_StandardEndpointRequest+1,f,c
  3910  000EFA  0100               	movlb	0	; () banked
  3911  000EFC  0EA2               	movlw	low _usb_bdt
  3912  000EFE  2405               	addwf	??_usb_handle_StandardEndpointRequest,w,c
  3913  000F00  6E0A               	movwf	usb_handle_StandardEndpointRequest@epbd,c
  3914  000F02  0100               	movlb	0	; () banked
  3915  000F04  0E00               	movlw	high _usb_bdt
  3916  000F06  2006               	addwfc	??_usb_handle_StandardEndpointRequest+1,w,c
  3917  000F08  6E0B               	movwf	usb_handle_StandardEndpointRequest@epbd+1,c
  3918                           
  3919                           ; BSR set to: 0
  3920                           ;usb_stack.c: 455: if (epbd->BDSTAT &= ~0x04)
  3921  000F0A  C00A  FFD9         	movff	usb_handle_StandardEndpointRequest@epbd,fsr2l
  3922  000F0E  C00B  FFDA         	movff	usb_handle_StandardEndpointRequest@epbd+1,fsr2h
  3923  000F12  0EFB               	movlw	251
  3924  000F14  16DF               	andwf	indf2,f,c
  3925  000F16  50DF               	movf	indf2,w,c
  3926  000F18  B4D8               	btfsc	status,2,c
  3927  000F1A  D010               	goto	l2697
  3928                           
  3929                           ; BSR set to: 0
  3930                           ;usb_stack.c: 456: EP0_Inbdp->BDADDR[0] = 0x01;
  3931  000F1C  EE20 F002          	lfsr	2,2
  3932  000F20  5036               	movf	_EP0_Inbdp,w,c
  3933  000F22  26D9               	addwf	fsr2l,f,c
  3934  000F24  5037               	movf	_EP0_Inbdp+1,w,c
  3935  000F26  22DA               	addwfc	fsr2h,f,c
  3936  000F28  CFDE F005          	movff	postinc2,??_usb_handle_StandardEndpointRequest
  3937  000F2C  CFDD F006          	movff	postdec2,??_usb_handle_StandardEndpointRequest+1
  3938  000F30  C005  FFD9         	movff	??_usb_handle_StandardEndpointRequest,fsr2l
  3939  000F34  C006  FFDA         	movff	??_usb_handle_StandardEndpointRequest+1,fsr2h
  3940  000F38  0E01               	movlw	1
  3941  000F3A  6EDF               	movwf	indf2,c
  3942  000F3C                     l2697:
  3943                           
  3944                           ; BSR set to: 0
  3945                           ;usb_stack.c: 460: usb_ack_dat1(2);
  3946  000F3C  0E00               	movlw	0
  3947  000F3E  6E02               	movwf	?_usb_ack_dat1+1,c
  3948  000F40  0E02               	movlw	2
  3949  000F42  6E01               	movwf	?_usb_ack_dat1,c
  3950  000F44  EC1A  F011         	call	_usb_ack_dat1	;wreg free
  3951                           
  3952                           ;usb_stack.c: 461: break;
  3953  000F48  D0AE               	goto	l434
  3954  000F4A                     l2699:
  3955                           
  3956                           ;usb_stack.c: 469: epnum = packet[4] & 0x0F;
  3957  000F4A  EE20 F004          	lfsr	2,4
  3958  000F4E  500D               	movf	usb_handle_StandardEndpointRequest@packet,w,c
  3959  000F50  26D9               	addwf	fsr2l,f,c
  3960  000F52  500E               	movf	usb_handle_StandardEndpointRequest@packet+1,w,c
  3961  000F54  22DA               	addwfc	fsr2h,f,c
  3962  000F56  50DF               	movf	indf2,w,c
  3963  000F58  0B0F               	andlw	15
  3964  000F5A  6E09               	movwf	usb_handle_StandardEndpointRequest@epnum,c
  3965                           
  3966                           ;usb_stack.c: 470: pUEP = ((usb_uep_t*) (&UEP0));
  3967  000F5C  0E0F               	movlw	15	;volatile
  3968  000F5E  6E08               	movwf	usb_handle_StandardEndpointRequest@pUEP+1,c
  3969  000F60  0E70               	movlw	112	;volatile
  3970  000F62  6E07               	movwf	usb_handle_StandardEndpointRequest@pUEP,c
  3971                           
  3972                           ;usb_stack.c: 471: pUEP += epnum;
  3973  000F64  5009               	movf	usb_handle_StandardEndpointRequest@epnum,w,c
  3974  000F66  0D01               	mullw	1
  3975  000F68  50F3               	movf	prodl,w,c
  3976  000F6A  2607               	addwf	usb_handle_StandardEndpointRequest@pUEP,f,c
  3977  000F6C  50F4               	movf	prodh,w,c
  3978  000F6E  2208               	addwfc	usb_handle_StandardEndpointRequest@pUEP+1,f,c
  3979                           
  3980                           ;usb_stack.c: 472: *pUEP &= ~(0x01);
  3981  000F70  C007  FFD9         	movff	usb_handle_StandardEndpointRequest@pUEP,fsr2l
  3982  000F74  C008  FFDA         	movff	usb_handle_StandardEndpointRequest@pUEP+1,fsr2h
  3983  000F78  0EFE               	movlw	254
  3984  000F7A  16DF               	andwf	indf2,f,c
  3985                           
  3986                           ;usb_stack.c: 474: dir = packet[4] >> 7;
  3987  000F7C  EE20 F004          	lfsr	2,4
  3988  000F80  500D               	movf	usb_handle_StandardEndpointRequest@packet,w,c
  3989  000F82  26D9               	addwf	fsr2l,f,c
  3990  000F84  500E               	movf	usb_handle_StandardEndpointRequest@packet+1,w,c
  3991  000F86  22DA               	addwfc	fsr2h,f,c
  3992  000F88  50DF               	movf	indf2,w,c
  3993  000F8A  6E05               	movwf	??_usb_handle_StandardEndpointRequest& (0+255),c
  3994  000F8C  0E00               	movlw	0
  3995  000F8E  BE05               	btfsc	??_usb_handle_StandardEndpointRequest,7,c
  3996  000F90  0E01               	movlw	1
  3997  000F92  6E05               	movwf	??_usb_handle_StandardEndpointRequest,c
  3998  000F94  5005               	movf	??_usb_handle_StandardEndpointRequest,w,c
  3999  000F96  6E0C               	movwf	usb_handle_StandardEndpointRequest@dir,c
  4000                           
  4001                           ;usb_stack.c: 475: epbd = &usb_bdt[( 2*(epnum)+(dir) )];
  4002  000F98  500C               	movf	usb_handle_StandardEndpointRequest@dir,w,c
  4003  000F9A  C009  F005         	movff	usb_handle_StandardEndpointRequest@epnum,??_usb_handle_StandardEndpointRequest
  4004  000F9E  6A06               	clrf	(??_usb_handle_StandardEndpointRequest+1)& (0+255),c
  4005  000FA0  90D8               	bcf	status,0,c
  4006  000FA2  3605               	rlcf	??_usb_handle_StandardEndpointRequest,f,c
  4007  000FA4  3606               	rlcf	??_usb_handle_StandardEndpointRequest+1,f,c
  4008  000FA6  2605               	addwf	??_usb_handle_StandardEndpointRequest,f,c
  4009  000FA8  0E00               	movlw	0
  4010  000FAA  2206               	addwfc	??_usb_handle_StandardEndpointRequest+1,f,c
  4011  000FAC  90D8               	bcf	status,0,c
  4012  000FAE  3605               	rlcf	??_usb_handle_StandardEndpointRequest,f,c
  4013  000FB0  3606               	rlcf	??_usb_handle_StandardEndpointRequest+1,f,c
  4014  000FB2  90D8               	bcf	status,0,c
  4015  000FB4  3605               	rlcf	??_usb_handle_StandardEndpointRequest,f,c
  4016  000FB6  3606               	rlcf	??_usb_handle_StandardEndpointRequest+1,f,c
  4017  000FB8  0100               	movlb	0	; () banked
  4018  000FBA  0EA2               	movlw	low _usb_bdt
  4019  000FBC  2405               	addwf	??_usb_handle_StandardEndpointRequest,w,c
  4020  000FBE  6E0A               	movwf	usb_handle_StandardEndpointRequest@epbd,c
  4021  000FC0  0100               	movlb	0	; () banked
  4022  000FC2  0E00               	movlw	high _usb_bdt
  4023  000FC4  2006               	addwfc	??_usb_handle_StandardEndpointRequest+1,w,c
  4024  000FC6  6E0B               	movwf	usb_handle_StandardEndpointRequest@epbd+1,c
  4025                           
  4026                           ; BSR set to: 0
  4027                           ;usb_stack.c: 476: epbd->BDSTAT &= ~0x04;
  4028  000FC8  C00A  FFD9         	movff	usb_handle_StandardEndpointRequest@epbd,fsr2l
  4029  000FCC  C00B  FFDA         	movff	usb_handle_StandardEndpointRequest@epbd+1,fsr2h
  4030  000FD0  0EFB               	movlw	251
  4031  000FD2  16DF               	andwf	indf2,f,c
  4032                           
  4033                           ; BSR set to: 0
  4034                           ;usb_stack.c: 477: if (dir) epbd->BDSTAT |= 0x40;
  4035  000FD4  500C               	movf	usb_handle_StandardEndpointRequest@dir,w,c
  4036  000FD6  B4D8               	btfsc	status,2,c
  4037  000FD8  D006               	goto	l2717
  4038                           
  4039                           ; BSR set to: 0
  4040  000FDA  C00A  FFD9         	movff	usb_handle_StandardEndpointRequest@epbd,fsr2l
  4041  000FDE  C00B  FFDA         	movff	usb_handle_StandardEndpointRequest@epbd+1,fsr2h
  4042  000FE2  0E00               	movlw	0
  4043  000FE4  8CDB               	bsf	plusw2,6,c
  4044  000FE6                     l2717:
  4045                           
  4046                           ; BSR set to: 0
  4047                           ;usb_stack.c: 478: if (0 == dir) epbd->BDSTAT &= ~0x40;
  4048  000FE6  660C               	tstfsz	usb_handle_StandardEndpointRequest@dir,c
  4049  000FE8  D006               	goto	l2721
  4050                           
  4051                           ; BSR set to: 0
  4052  000FEA  C00A  FFD9         	movff	usb_handle_StandardEndpointRequest@epbd,fsr2l
  4053  000FEE  C00B  FFDA         	movff	usb_handle_StandardEndpointRequest@epbd+1,fsr2h
  4054  000FF2  0EBF               	movlw	191
  4055  000FF4  16DF               	andwf	indf2,f,c
  4056  000FF6                     l2721:
  4057                           
  4058                           ; BSR set to: 0
  4059                           ;usb_stack.c: 490: usb_ack_dat1(0);
  4060  000FF6  0E00               	movlw	0
  4061  000FF8  6E02               	movwf	?_usb_ack_dat1+1,c
  4062  000FFA  0E00               	movlw	0
  4063  000FFC  6E01               	movwf	?_usb_ack_dat1,c
  4064  000FFE  EC1A  F011         	call	_usb_ack_dat1	;wreg free
  4065                           
  4066                           ;usb_stack.c: 491: break;
  4067  001002  D051               	goto	l434
  4068  001004                     l2723:
  4069                           
  4070                           ;usb_stack.c: 495: epnum = packet[4] & 0x0F;
  4071  001004  EE20 F004          	lfsr	2,4
  4072  001008  500D               	movf	usb_handle_StandardEndpointRequest@packet,w,c
  4073  00100A  26D9               	addwf	fsr2l,f,c
  4074  00100C  500E               	movf	usb_handle_StandardEndpointRequest@packet+1,w,c
  4075  00100E  22DA               	addwfc	fsr2h,f,c
  4076  001010  50DF               	movf	indf2,w,c
  4077  001012  0B0F               	andlw	15
  4078  001014  6E09               	movwf	usb_handle_StandardEndpointRequest@epnum,c
  4079                           
  4080                           ;usb_stack.c: 496: dir = packet[4] >> 7;
  4081  001016  EE20 F004          	lfsr	2,4
  4082  00101A  500D               	movf	usb_handle_StandardEndpointRequest@packet,w,c
  4083  00101C  26D9               	addwf	fsr2l,f,c
  4084  00101E  500E               	movf	usb_handle_StandardEndpointRequest@packet+1,w,c
  4085  001020  22DA               	addwfc	fsr2h,f,c
  4086  001022  50DF               	movf	indf2,w,c
  4087  001024  6E05               	movwf	??_usb_handle_StandardEndpointRequest& (0+255),c
  4088  001026  0E00               	movlw	0
  4089  001028  BE05               	btfsc	??_usb_handle_StandardEndpointRequest,7,c
  4090  00102A  0E01               	movlw	1
  4091  00102C  6E05               	movwf	??_usb_handle_StandardEndpointRequest,c
  4092  00102E  5005               	movf	??_usb_handle_StandardEndpointRequest,w,c
  4093  001030  6E0C               	movwf	usb_handle_StandardEndpointRequest@dir,c
  4094                           
  4095                           ;usb_stack.c: 497: epbd = &usb_bdt[( 2*(epnum)+(dir) )];
  4096  001032  500C               	movf	usb_handle_StandardEndpointRequest@dir,w,c
  4097  001034  C009  F005         	movff	usb_handle_StandardEndpointRequest@epnum,??_usb_handle_StandardEndpointRequest
  4098  001038  6A06               	clrf	(??_usb_handle_StandardEndpointRequest+1)& (0+255),c
  4099  00103A  90D8               	bcf	status,0,c
  4100  00103C  3605               	rlcf	??_usb_handle_StandardEndpointRequest,f,c
  4101  00103E  3606               	rlcf	??_usb_handle_StandardEndpointRequest+1,f,c
  4102  001040  2605               	addwf	??_usb_handle_StandardEndpointRequest,f,c
  4103  001042  0E00               	movlw	0
  4104  001044  2206               	addwfc	??_usb_handle_StandardEndpointRequest+1,f,c
  4105  001046  90D8               	bcf	status,0,c
  4106  001048  3605               	rlcf	??_usb_handle_StandardEndpointRequest,f,c
  4107  00104A  3606               	rlcf	??_usb_handle_StandardEndpointRequest+1,f,c
  4108  00104C  90D8               	bcf	status,0,c
  4109  00104E  3605               	rlcf	??_usb_handle_StandardEndpointRequest,f,c
  4110  001050  3606               	rlcf	??_usb_handle_StandardEndpointRequest+1,f,c
  4111  001052  0100               	movlb	0	; () banked
  4112  001054  0EA2               	movlw	low _usb_bdt
  4113  001056  2405               	addwf	??_usb_handle_StandardEndpointRequest,w,c
  4114  001058  6E0A               	movwf	usb_handle_StandardEndpointRequest@epbd,c
  4115  00105A  0100               	movlb	0	; () banked
  4116  00105C  0E00               	movlw	high _usb_bdt
  4117  00105E  2006               	addwfc	??_usb_handle_StandardEndpointRequest+1,w,c
  4118  001060  6E0B               	movwf	usb_handle_StandardEndpointRequest@epbd+1,c
  4119                           
  4120                           ; BSR set to: 0
  4121                           ;usb_stack.c: 498: epbd->BDSTAT |= 0x04;
  4122  001062  C00A  FFD9         	movff	usb_handle_StandardEndpointRequest@epbd,fsr2l
  4123  001066  C00B  FFDA         	movff	usb_handle_StandardEndpointRequest@epbd+1,fsr2h
  4124  00106A  0E00               	movlw	0
  4125  00106C  84DB               	bsf	plusw2,2,c
  4126                           
  4127                           ; BSR set to: 0
  4128                           ;usb_stack.c: 501: usb_ack_dat1(0);
  4129  00106E  0E00               	movlw	0
  4130  001070  6E02               	movwf	?_usb_ack_dat1+1,c
  4131  001072  0E00               	movlw	0
  4132  001074  6E01               	movwf	?_usb_ack_dat1,c
  4133  001076  EC1A  F011         	call	_usb_ack_dat1	;wreg free
  4134                           
  4135                           ;usb_stack.c: 502: break;
  4136  00107A  D015               	goto	l434
  4137  00107C                     l2731:
  4138                           
  4139                           ;usb_stack.c: 505: usb_RequestError();
  4140  00107C  ECF6  F010         	call	_usb_RequestError	;wreg free
  4141                           
  4142                           ;usb_stack.c: 506: }
  4143  001080  D012               	goto	l434
  4144  001082                     l2733:
  4145  001082  EE20 F001          	lfsr	2,1
  4146  001086  500D               	movf	usb_handle_StandardEndpointRequest@packet,w,c
  4147  001088  26D9               	addwf	fsr2l,f,c
  4148  00108A  500E               	movf	usb_handle_StandardEndpointRequest@packet+1,w,c
  4149  00108C  22DA               	addwfc	fsr2h,f,c
  4150  00108E  50DF               	movf	indf2,w,c
  4151                           
  4152                           ; Switch size 1, requested type "space"
  4153                           ; Number of cases is 4, Range of values is 0 to 12
  4154                           ; switch strategies available:
  4155                           ; Name         Instructions Cycles
  4156                           ; simple_byte           13     7 (average)
  4157                           ;	Chosen strategy is simple_byte
  4158  001090  0A00               	xorlw	0	; case 0
  4159  001092  B4D8               	btfsc	status,2,c
  4160  001094  D6E9               	goto	l2689
  4161  001096  0A01               	xorlw	1	; case 1
  4162  001098  B4D8               	btfsc	status,2,c
  4163  00109A  D757               	goto	l2699
  4164  00109C  0A02               	xorlw	2	; case 3
  4165  00109E  B4D8               	btfsc	status,2,c
  4166  0010A0  D7B1               	goto	l2723
  4167  0010A2  0A0F               	xorlw	15	; case 12
  4168  0010A4  D7EB               	goto	l2731
  4169  0010A6                     l434:
  4170  0010A6  0012               	return	
  4171  0010A8                     __end_of_usb_handle_StandardEndpointRequest:
  4172                           	opt stack 0
  4173                           tosu	equ	0xFFF
  4174                           tosh	equ	0xFFE
  4175                           tosl	equ	0xFFD
  4176                           pclath	equ	0xFFA
  4177                           tblptru	equ	0xFF8
  4178                           tblptrh	equ	0xFF7
  4179                           tblptrl	equ	0xFF6
  4180                           tablat	equ	0xFF5
  4181                           prodh	equ	0xFF4
  4182                           prodl	equ	0xFF3
  4183                           postinc0	equ	0xFEE
  4184                           wreg	equ	0xFE8
  4185                           indf1	equ	0xFE7
  4186                           postdec1	equ	0xFE5
  4187                           fsr1h	equ	0xFE2
  4188                           fsr1l	equ	0xFE1
  4189                           indf2	equ	0xFDF
  4190                           postinc2	equ	0xFDE
  4191                           postdec2	equ	0xFDD
  4192                           plusw2	equ	0xFDB
  4193                           fsr2h	equ	0xFDA
  4194                           fsr2l	equ	0xFD9
  4195                           status	equ	0xFD8
  4196                           
  4197 ;; *************** function _usb_handle_StandardInterfaceRequest *****************
  4198 ;; Defined at:
  4199 ;;		line 408 in file "../dp_usb/usb_stack.c"
  4200 ;; Parameters:    Size  Location     Type
  4201 ;;  bdp             2    2[COMRAM] PTR struct BDENTRY
  4202 ;;		 -> NULL(0), usb_bdt(24), 
  4203 ;; Auto vars:     Size  Location     Type
  4204 ;;  packet          2    6[COMRAM] PTR unsigned char 
  4205 ;;		 -> usb_ep0_in_buf(8), usb_ep0_out_buf(8), cdc_In_bufferB(64), cdc_Out_bufferB(64), 
  4206 ;;		 -> cdc_Out_bufferA(64), cdc_In_bufferA(64), cdc_acm_in_buffer(10), 
  4207 ;; Return value:  Size  Location     Type
  4208 ;;		None               void
  4209 ;; Registers used:
  4210 ;;		wreg, fsr2l, fsr2h, status,2, status,0, cstack
  4211 ;; Tracked objects:
  4212 ;;		On entry : 0/0
  4213 ;;		On exit  : 0/0
  4214 ;;		Unchanged: 0/0
  4215 ;; Data sizes:     COMRAM   BANK0   BANK1   BANK2   BANK3   BANK4   BANK5   BANK6   BANK7
  4216 ;;      Params:         2       0       0       0       0       0       0       0       0
  4217 ;;      Locals:         2       0       0       0       0       0       0       0       0
  4218 ;;      Temps:          2       0       0       0       0       0       0       0       0
  4219 ;;      Totals:         6       0       0       0       0       0       0       0       0
  4220 ;;Total ram usage:        6 bytes
  4221 ;; Hardware stack levels used:    1
  4222 ;; Hardware stack levels required when called:    1
  4223 ;; This function calls:
  4224 ;;		_usb_ack_dat1
  4225 ;;		_usb_RequestError
  4226 ;; This function is called by:
  4227 ;;		_usb_handle_setup
  4228 ;; This function uses a non-reentrant model
  4229 ;;
  4230                           
  4231                           	psect	text25
  4232  00166C                     __ptext25:
  4233                           	opt stack 0
  4234  00166C                     _usb_handle_StandardInterfaceRequest:
  4235                           	opt stack 23
  4236                           
  4237                           ;usb_stack.c: 409: BYTE *packet = bdp->BDADDR;
  4238                           
  4239                           ;incstack = 0
  4240                           ;incstack = 0
  4241  00166C  EE20 F002          	lfsr	2,2
  4242  001670  5003               	movf	usb_handle_StandardInterfaceRequest@bdp,w,c
  4243  001672  26D9               	addwf	fsr2l,f,c
  4244  001674  5004               	movf	usb_handle_StandardInterfaceRequest@bdp+1,w,c
  4245  001676  22DA               	addwfc	fsr2h,f,c
  4246  001678  CFDE F007          	movff	postinc2,usb_handle_StandardInterfaceRequest@packet
  4247  00167C  CFDD F008          	movff	postdec2,usb_handle_StandardInterfaceRequest@packet+1
  4248                           
  4249                           ;usb_stack.c: 411: switch (packet[1]) {
  4250  001680  D071               	goto	l2685
  4251  001682                     l2663:
  4252                           
  4253                           ;usb_stack.c: 413: EP0_Inbdp->BDADDR[0] = 0x00;
  4254  001682  EE20 F002          	lfsr	2,2
  4255  001686  5036               	movf	_EP0_Inbdp,w,c
  4256  001688  26D9               	addwf	fsr2l,f,c
  4257  00168A  5037               	movf	_EP0_Inbdp+1,w,c
  4258  00168C  22DA               	addwfc	fsr2h,f,c
  4259  00168E  CFDE F005          	movff	postinc2,??_usb_handle_StandardInterfaceRequest
  4260  001692  CFDD F006          	movff	postdec2,??_usb_handle_StandardInterfaceRequest+1
  4261  001696  C005  FFD9         	movff	??_usb_handle_StandardInterfaceRequest,fsr2l
  4262  00169A  C006  FFDA         	movff	??_usb_handle_StandardInterfaceRequest+1,fsr2h
  4263  00169E  0E00               	movlw	0
  4264  0016A0  6EDF               	movwf	indf2,c
  4265                           
  4266                           ;usb_stack.c: 414: EP0_Inbdp->BDADDR[1] = 0x00;
  4267  0016A2  EE20 F002          	lfsr	2,2
  4268  0016A6  5036               	movf	_EP0_Inbdp,w,c
  4269  0016A8  26D9               	addwf	fsr2l,f,c
  4270  0016AA  5037               	movf	_EP0_Inbdp+1,w,c
  4271  0016AC  22DA               	addwfc	fsr2h,f,c
  4272  0016AE  CFDE F005          	movff	postinc2,??_usb_handle_StandardInterfaceRequest
  4273  0016B2  CFDD F006          	movff	postdec2,??_usb_handle_StandardInterfaceRequest+1
  4274  0016B6  0E01               	movlw	1
  4275  0016B8  2405               	addwf	??_usb_handle_StandardInterfaceRequest,w,c
  4276  0016BA  6ED9               	movwf	fsr2l,c
  4277  0016BC  0E00               	movlw	0
  4278  0016BE  2006               	addwfc	??_usb_handle_StandardInterfaceRequest+1,w,c
  4279  0016C0  6EDA               	movwf	fsr2h,c
  4280  0016C2  0E00               	movlw	0
  4281  0016C4  6EDF               	movwf	indf2,c
  4282                           
  4283                           ;usb_stack.c: 415: usb_ack_dat1(2);
  4284  0016C6  0E00               	movlw	0
  4285  0016C8  6E02               	movwf	?_usb_ack_dat1+1,c
  4286  0016CA  0E02               	movlw	2
  4287  0016CC  6E01               	movwf	?_usb_ack_dat1,c
  4288  0016CE  EC1A  F011         	call	_usb_ack_dat1	;wreg free
  4289                           
  4290                           ;usb_stack.c: 416: break;
  4291  0016D2  D05F               	goto	l421
  4292  0016D4                     l2667:
  4293                           
  4294                           ;usb_stack.c: 418: if (2u > packet[4]) {
  4295  0016D4  EE20 F004          	lfsr	2,4
  4296  0016D8  5007               	movf	usb_handle_StandardInterfaceRequest@packet,w,c
  4297  0016DA  26D9               	addwf	fsr2l,f,c
  4298  0016DC  5008               	movf	usb_handle_StandardInterfaceRequest@packet+1,w,c
  4299  0016DE  22DA               	addwfc	fsr2h,f,c
  4300  0016E0  50DF               	movf	indf2,w,c
  4301  0016E2  6E05               	movwf	??_usb_handle_StandardInterfaceRequest& (0+255),c
  4302  0016E4  0E02               	movlw	2
  4303  0016E6  5C05               	subwf	??_usb_handle_StandardInterfaceRequest,w,c
  4304  0016E8  B0D8               	btfsc	status,0,c
  4305  0016EA  D017               	goto	l2673
  4306                           
  4307                           ;usb_stack.c: 420: EP0_Inbdp->BDADDR[0] = 0;
  4308  0016EC  EE20 F002          	lfsr	2,2
  4309  0016F0  5036               	movf	_EP0_Inbdp,w,c
  4310  0016F2  26D9               	addwf	fsr2l,f,c
  4311  0016F4  5037               	movf	_EP0_Inbdp+1,w,c
  4312  0016F6  22DA               	addwfc	fsr2h,f,c
  4313  0016F8  CFDE F005          	movff	postinc2,??_usb_handle_StandardInterfaceRequest
  4314  0016FC  CFDD F006          	movff	postdec2,??_usb_handle_StandardInterfaceRequest+1
  4315  001700  C005  FFD9         	movff	??_usb_handle_StandardInterfaceRequest,fsr2l
  4316  001704  C006  FFDA         	movff	??_usb_handle_StandardInterfaceRequest+1,fsr2h
  4317  001708  0E00               	movlw	0
  4318  00170A  6EDF               	movwf	indf2,c
  4319                           
  4320                           ;usb_stack.c: 421: usb_ack_dat1(1);
  4321  00170C  0E00               	movlw	0
  4322  00170E  6E02               	movwf	?_usb_ack_dat1+1,c
  4323  001710  0E01               	movlw	1
  4324  001712  6E01               	movwf	?_usb_ack_dat1,c
  4325  001714  EC1A  F011         	call	_usb_ack_dat1	;wreg free
  4326                           
  4327                           ;usb_stack.c: 422: } else
  4328  001718  D03C               	goto	l421
  4329  00171A                     l2673:
  4330                           
  4331                           ;usb_stack.c: 423: usb_RequestError();
  4332  00171A  ECF6  F010         	call	_usb_RequestError	;wreg free
  4333  00171E  D039               	goto	l421
  4334  001720                     l2675:
  4335                           
  4336                           ;usb_stack.c: 426: if (2u > packet[4] && 0u == packet[2]) {
  4337  001720  EE20 F004          	lfsr	2,4
  4338  001724  5007               	movf	usb_handle_StandardInterfaceRequest@packet,w,c
  4339  001726  26D9               	addwf	fsr2l,f,c
  4340  001728  5008               	movf	usb_handle_StandardInterfaceRequest@packet+1,w,c
  4341  00172A  22DA               	addwfc	fsr2h,f,c
  4342  00172C  50DF               	movf	indf2,w,c
  4343  00172E  6E05               	movwf	??_usb_handle_StandardInterfaceRequest& (0+255),c
  4344  001730  0E02               	movlw	2
  4345  001732  5C05               	subwf	??_usb_handle_StandardInterfaceRequest,w,c
  4346  001734  B0D8               	btfsc	status,0,c
  4347  001736  D010               	goto	l2681
  4348  001738  EE20 F002          	lfsr	2,2
  4349  00173C  5007               	movf	usb_handle_StandardInterfaceRequest@packet,w,c
  4350  00173E  26D9               	addwf	fsr2l,f,c
  4351  001740  5008               	movf	usb_handle_StandardInterfaceRequest@packet+1,w,c
  4352  001742  22DA               	addwfc	fsr2h,f,c
  4353  001744  50DF               	movf	indf2,w,c
  4354  001746  A4D8               	btfss	status,2,c
  4355  001748  D007               	goto	l2681
  4356                           
  4357                           ;usb_stack.c: 428: usb_ack_dat1(0);
  4358  00174A  0E00               	movlw	0
  4359  00174C  6E02               	movwf	?_usb_ack_dat1+1,c
  4360  00174E  0E00               	movlw	0
  4361  001750  6E01               	movwf	?_usb_ack_dat1,c
  4362  001752  EC1A  F011         	call	_usb_ack_dat1	;wreg free
  4363                           
  4364                           ;usb_stack.c: 429: } else
  4365  001756  D01D               	goto	l421
  4366  001758                     l2681:
  4367                           
  4368                           ;usb_stack.c: 430: usb_RequestError();
  4369  001758  ECF6  F010         	call	_usb_RequestError	;wreg free
  4370  00175C  D01A               	goto	l421
  4371  00175E                     l2683:
  4372                           
  4373                           ;usb_stack.c: 435: usb_RequestError();
  4374  00175E  ECF6  F010         	call	_usb_RequestError	;wreg free
  4375                           
  4376                           ;usb_stack.c: 436: }
  4377  001762  D017               	goto	l421
  4378  001764                     l2685:
  4379  001764  EE20 F001          	lfsr	2,1
  4380  001768  5007               	movf	usb_handle_StandardInterfaceRequest@packet,w,c
  4381  00176A  26D9               	addwf	fsr2l,f,c
  4382  00176C  5008               	movf	usb_handle_StandardInterfaceRequest@packet+1,w,c
  4383  00176E  22DA               	addwfc	fsr2h,f,c
  4384  001770  50DF               	movf	indf2,w,c
  4385                           
  4386                           ; Switch size 1, requested type "space"
  4387                           ; Number of cases is 5, Range of values is 0 to 11
  4388                           ; switch strategies available:
  4389                           ; Name         Instructions Cycles
  4390                           ; simple_byte           16     9 (average)
  4391                           ;	Chosen strategy is simple_byte
  4392  001772  0A00               	xorlw	0	; case 0
  4393  001774  B4D8               	btfsc	status,2,c
  4394  001776  D785               	goto	l2663
  4395  001778  0A01               	xorlw	1	; case 1
  4396  00177A  B4D8               	btfsc	status,2,c
  4397  00177C  D7F0               	goto	l2683
  4398  00177E  0A02               	xorlw	2	; case 3
  4399  001780  B4D8               	btfsc	status,2,c
  4400  001782  D7ED               	goto	l2683
  4401  001784  0A09               	xorlw	9	; case 10
  4402  001786  B4D8               	btfsc	status,2,c
  4403  001788  D7A5               	goto	l2667
  4404  00178A  0A01               	xorlw	1	; case 11
  4405  00178C  B4D8               	btfsc	status,2,c
  4406  00178E  D7C8               	goto	l2675
  4407  001790  D7E6               	goto	l2683
  4408  001792                     l421:
  4409  001792  0012               	return	
  4410  001794                     __end_of_usb_handle_StandardInterfaceRequest:
  4411                           	opt stack 0
  4412                           tosu	equ	0xFFF
  4413                           tosh	equ	0xFFE
  4414                           tosl	equ	0xFFD
  4415                           pclath	equ	0xFFA
  4416                           tblptru	equ	0xFF8
  4417                           tblptrh	equ	0xFF7
  4418                           tblptrl	equ	0xFF6
  4419                           tablat	equ	0xFF5
  4420                           prodh	equ	0xFF4
  4421                           prodl	equ	0xFF3
  4422                           postinc0	equ	0xFEE
  4423                           wreg	equ	0xFE8
  4424                           indf1	equ	0xFE7
  4425                           postdec1	equ	0xFE5
  4426                           fsr1h	equ	0xFE2
  4427                           fsr1l	equ	0xFE1
  4428                           indf2	equ	0xFDF
  4429                           postinc2	equ	0xFDE
  4430                           postdec2	equ	0xFDD
  4431                           plusw2	equ	0xFDB
  4432                           fsr2h	equ	0xFDA
  4433                           fsr2l	equ	0xFD9
  4434                           status	equ	0xFD8
  4435                           
  4436 ;; *************** function _usb_handle_StandardDeviceRequest *****************
  4437 ;; Defined at:
  4438 ;;		line 287 in file "../dp_usb/usb_stack.c"
  4439 ;; Parameters:    Size  Location     Type
  4440 ;;  bdp             2   15[COMRAM] PTR struct BDENTRY
  4441 ;;		 -> NULL(0), usb_bdt(24), 
  4442 ;; Auto vars:     Size  Location     Type
  4443 ;;  packet          2   31[COMRAM] PTR unsigned char 
  4444 ;;		 -> usb_ep0_in_buf(8), usb_ep0_out_buf(8), cdc_In_bufferB(64), cdc_Out_bufferB(64), 
  4445 ;;		 -> cdc_Out_bufferA(64), cdc_In_bufferA(64), cdc_acm_in_buffer(10), 
  4446 ;;  i               2   29[COMRAM] int 
  4447 ;; Return value:  Size  Location     Type
  4448 ;;		None               void
  4449 ;; Registers used:
  4450 ;;		wreg, fsr2l, fsr2h, status,2, status,0, tblptrl, tblptrh, tblptru, cstack
  4451 ;; Tracked objects:
  4452 ;;		On entry : 0/0
  4453 ;;		On exit  : 0/0
  4454 ;;		Unchanged: 0/0
  4455 ;; Data sizes:     COMRAM   BANK0   BANK1   BANK2   BANK3   BANK4   BANK5   BANK6   BANK7
  4456 ;;      Params:         2       0       0       0       0       0       0       0       0
  4457 ;;      Locals:         4       0       0       0       0       0       0       0       0
  4458 ;;      Temps:         12       0       0       0       0       0       0       0       0
  4459 ;;      Totals:        18       0       0       0       0       0       0       0       0
  4460 ;;Total ram usage:       18 bytes
  4461 ;; Hardware stack levels used:    1
  4462 ;; Hardware stack levels required when called:    2
  4463 ;; This function calls:
  4464 ;;		_user_configured_init
  4465 ;;		_usb_set_in_handler
  4466 ;;		_usb_ack_dat1
  4467 ;;		_usb_RequestError
  4468 ;;		_usb_send_rom
  4469 ;; This function is called by:
  4470 ;;		_usb_handle_setup
  4471 ;; This function uses a non-reentrant model
  4472 ;;
  4473                           
  4474                           	psect	text26
  4475  0008AE                     __ptext26:
  4476                           	opt stack 0
  4477  0008AE                     _usb_handle_StandardDeviceRequest:
  4478                           	opt stack 22
  4479                           
  4480                           ;usb_stack.c: 288: BYTE *packet = bdp->BDADDR;
  4481                           
  4482                           ;incstack = 0
  4483                           ;incstack = 0
  4484  0008AE  EE20 F002          	lfsr	2,2
  4485  0008B2  5010               	movf	usb_handle_StandardDeviceRequest@bdp,w,c
  4486  0008B4  26D9               	addwf	fsr2l,f,c
  4487  0008B6  5011               	movf	usb_handle_StandardDeviceRequest@bdp+1,w,c
  4488  0008B8  22DA               	addwfc	fsr2h,f,c
  4489  0008BA  CFDE F020          	movff	postinc2,usb_handle_StandardDeviceRequest@packet
  4490  0008BE  CFDD F021          	movff	postdec2,usb_handle_StandardDeviceRequest@packet+1
  4491                           
  4492                           ;usb_stack.c: 289: int i;
  4493                           ;usb_stack.c: 291: switch (packet[1]) {
  4494  0008C2  D2A6               	goto	l2901
  4495  0008C4                     l2783:
  4496                           
  4497                           ;usb_stack.c: 293: EP0_Inbdp->BDADDR[0] = usb_device_status & 0xFF;
  4498  0008C4  EE20 F002          	lfsr	2,2
  4499  0008C8  5036               	movf	_EP0_Inbdp,w,c
  4500  0008CA  26D9               	addwf	fsr2l,f,c
  4501  0008CC  5037               	movf	_EP0_Inbdp+1,w,c
  4502  0008CE  22DA               	addwfc	fsr2h,f,c
  4503  0008D0  CFDE F012          	movff	postinc2,??_usb_handle_StandardDeviceRequest
  4504  0008D4  CFDD F013          	movff	postdec2,??_usb_handle_StandardDeviceRequest+1
  4505  0008D8  C012  FFD9         	movff	??_usb_handle_StandardDeviceRequest,fsr2l
  4506  0008DC  C013  FFDA         	movff	??_usb_handle_StandardDeviceRequest+1,fsr2h
  4507  0008E0  C042  FFDF         	movff	_usb_device_status,indf2
  4508                           
  4509                           ;usb_stack.c: 294: EP0_Inbdp->BDADDR[1] = usb_device_status >> 8;
  4510  0008E4  EE20 F002          	lfsr	2,2
  4511  0008E8  5036               	movf	_EP0_Inbdp,w,c
  4512  0008EA  26D9               	addwf	fsr2l,f,c
  4513  0008EC  5037               	movf	_EP0_Inbdp+1,w,c
  4514  0008EE  22DA               	addwfc	fsr2h,f,c
  4515  0008F0  CFDE F012          	movff	postinc2,??_usb_handle_StandardDeviceRequest
  4516  0008F4  CFDD F013          	movff	postdec2,??_usb_handle_StandardDeviceRequest+1
  4517  0008F8  0E01               	movlw	1
  4518  0008FA  2412               	addwf	??_usb_handle_StandardDeviceRequest,w,c
  4519  0008FC  6ED9               	movwf	fsr2l,c
  4520  0008FE  0E00               	movlw	0
  4521  000900  2013               	addwfc	??_usb_handle_StandardDeviceRequest+1,w,c
  4522  000902  6EDA               	movwf	fsr2h,c
  4523  000904  5043               	movf	_usb_device_status+1,w,c
  4524  000906  6EDF               	movwf	indf2,c
  4525                           
  4526                           ;usb_stack.c: 295: usb_ack_dat1(2);
  4527  000908  0E00               	movlw	0
  4528  00090A  6E02               	movwf	?_usb_ack_dat1+1,c
  4529  00090C  0E02               	movlw	2
  4530  00090E  6E01               	movwf	?_usb_ack_dat1,c
  4531  000910  EC1A  F011         	call	_usb_ack_dat1	;wreg free
  4532                           
  4533                           ;usb_stack.c: 296: break;
  4534  000914  D29D               	goto	l406
  4535  000916                     l2787:
  4536                           
  4537                           ;usb_stack.c: 298: if (0x01u == packet[2]) {
  4538  000916  EE20 F002          	lfsr	2,2
  4539  00091A  5020               	movf	usb_handle_StandardDeviceRequest@packet,w,c
  4540  00091C  26D9               	addwf	fsr2l,f,c
  4541  00091E  5021               	movf	usb_handle_StandardDeviceRequest@packet+1,w,c
  4542  000920  22DA               	addwfc	fsr2h,f,c
  4543  000922  0E01               	movlw	1
  4544  000924  62DF               	cpfseq	indf2,c
  4545  000926  D008               	goto	l2793
  4546                           
  4547                           ;usb_stack.c: 299: usb_device_status &= ~0x0002;
  4548  000928  9242               	bcf	_usb_device_status,1,c
  4549                           
  4550                           ;usb_stack.c: 300: usb_ack_dat1(0);
  4551  00092A  0E00               	movlw	0
  4552  00092C  6E02               	movwf	?_usb_ack_dat1+1,c
  4553  00092E  0E00               	movlw	0
  4554  000930  6E01               	movwf	?_usb_ack_dat1,c
  4555  000932  EC1A  F011         	call	_usb_ack_dat1	;wreg free
  4556                           
  4557                           ;usb_stack.c: 301: } else
  4558  000936  D28C               	goto	l406
  4559  000938                     l2793:
  4560                           
  4561                           ;usb_stack.c: 302: usb_RequestError();
  4562  000938  ECF6  F010         	call	_usb_RequestError	;wreg free
  4563  00093C  D289               	goto	l406
  4564  00093E                     l2795:
  4565                           
  4566                           ;usb_stack.c: 305: if (0x01u == packet[2]) {
  4567  00093E  EE20 F002          	lfsr	2,2
  4568  000942  5020               	movf	usb_handle_StandardDeviceRequest@packet,w,c
  4569  000944  26D9               	addwf	fsr2l,f,c
  4570  000946  5021               	movf	usb_handle_StandardDeviceRequest@packet+1,w,c
  4571  000948  22DA               	addwfc	fsr2h,f,c
  4572  00094A  0E01               	movlw	1
  4573  00094C  62DF               	cpfseq	indf2,c
  4574  00094E  D008               	goto	l2801
  4575                           
  4576                           ;usb_stack.c: 306: usb_device_status |= 0x0002;
  4577  000950  8242               	bsf	_usb_device_status,1,c
  4578                           
  4579                           ;usb_stack.c: 307: usb_ack_dat1(0);
  4580  000952  0E00               	movlw	0
  4581  000954  6E02               	movwf	?_usb_ack_dat1+1,c
  4582  000956  0E00               	movlw	0
  4583  000958  6E01               	movwf	?_usb_ack_dat1,c
  4584  00095A  EC1A  F011         	call	_usb_ack_dat1	;wreg free
  4585                           
  4586                           ;usb_stack.c: 308: } else
  4587  00095E  D278               	goto	l406
  4588  000960                     l2801:
  4589                           
  4590                           ;usb_stack.c: 309: usb_RequestError();
  4591  000960  ECF6  F010         	call	_usb_RequestError	;wreg free
  4592  000964  D275               	goto	l406
  4593  000966                     l2803:
  4594                           
  4595                           ;usb_stack.c: 312: if (0x00u == packet[3] && 0x7Fu >= packet[2]) {
  4596  000966  EE20 F003          	lfsr	2,3
  4597  00096A  5020               	movf	usb_handle_StandardDeviceRequest@packet,w,c
  4598  00096C  26D9               	addwf	fsr2l,f,c
  4599  00096E  5021               	movf	usb_handle_StandardDeviceRequest@packet+1,w,c
  4600  000970  22DA               	addwfc	fsr2h,f,c
  4601  000972  50DF               	movf	indf2,w,c
  4602  000974  A4D8               	btfss	status,2,c
  4603  000976  D025               	goto	l2813
  4604  000978  EE20 F002          	lfsr	2,2
  4605  00097C  5020               	movf	usb_handle_StandardDeviceRequest@packet,w,c
  4606  00097E  26D9               	addwf	fsr2l,f,c
  4607  000980  5021               	movf	usb_handle_StandardDeviceRequest@packet+1,w,c
  4608  000982  22DA               	addwfc	fsr2h,f,c
  4609  000984  50DF               	movf	indf2,w,c
  4610  000986  6E12               	movwf	??_usb_handle_StandardDeviceRequest& (0+255),c
  4611  000988  0E80               	movlw	128
  4612  00098A  5C12               	subwf	??_usb_handle_StandardDeviceRequest,w,c
  4613  00098C  B0D8               	btfsc	status,0,c
  4614  00098E  D019               	goto	l2813
  4615                           
  4616                           ;usb_stack.c: 313: usb_addr_pending = packet[2];
  4617  000990  EE20 F002          	lfsr	2,2
  4618  000994  5020               	movf	usb_handle_StandardDeviceRequest@packet,w,c
  4619  000996  26D9               	addwf	fsr2l,f,c
  4620  000998  5021               	movf	usb_handle_StandardDeviceRequest@packet+1,w,c
  4621  00099A  22DA               	addwfc	fsr2h,f,c
  4622  00099C  50DF               	movf	indf2,w,c
  4623  00099E  6E59               	movwf	_usb_addr_pending,c
  4624                           
  4625                           ;usb_stack.c: 314: usb_set_in_handler(0, usb_set_address);
  4626  0009A0  0E00               	movlw	0
  4627  0009A2  6E02               	movwf	?_usb_set_in_handler+1,c
  4628  0009A4  0E00               	movlw	0
  4629  0009A6  6E01               	movwf	?_usb_set_in_handler,c
  4630  0009A8  0E21               	movlw	high _usb_set_address
  4631  0009AA  6E04               	movwf	?_usb_set_in_handler+3,c
  4632  0009AC  0EC4               	movlw	low _usb_set_address
  4633  0009AE  6E03               	movwf	?_usb_set_in_handler+2,c
  4634  0009B0  ECCB  F010         	call	_usb_set_in_handler	;wreg free
  4635                           
  4636                           ;usb_stack.c: 315: usb_ack_dat1(0);
  4637  0009B4  0E00               	movlw	0
  4638  0009B6  6E02               	movwf	?_usb_ack_dat1+1,c
  4639  0009B8  0E00               	movlw	0
  4640  0009BA  6E01               	movwf	?_usb_ack_dat1,c
  4641  0009BC  EC1A  F011         	call	_usb_ack_dat1	;wreg free
  4642                           
  4643                           ;usb_stack.c: 316: } else
  4644  0009C0  D247               	goto	l406
  4645  0009C2                     l2813:
  4646                           
  4647                           ;usb_stack.c: 317: usb_RequestError();
  4648  0009C2  ECF6  F010         	call	_usb_RequestError	;wreg free
  4649  0009C6  D244               	goto	l406
  4650  0009C8                     l376:
  4651                           
  4652                           ;usb_stack.c: 324: usb_rom_ptr = usb_device_descriptor;
  4653  0009C8  C05C  F02F         	movff	_usb_device_descriptor,_usb_rom_ptr
  4654  0009CC  C05D  F030         	movff	_usb_device_descriptor+1,_usb_rom_ptr+1
  4655  0009D0  C05E  F031         	movff	_usb_device_descriptor+2,_usb_rom_ptr+2
  4656                           
  4657                           ;usb_stack.c: 325: usb_rom_len = usb_device_descriptor[0];
  4658  0009D4  C05C  FFF6         	movff	_usb_device_descriptor,tblptrl
  4659  0009D8  C05D  FFF7         	movff	_usb_device_descriptor+1,tblptrh
  4660  0009DC  C05E  FFF8         	movff	_usb_device_descriptor+2,tblptru
  4661  0009E0  0008               	tblrd		*
  4662  0009E2  50F5               	movf	tablat,w,c
  4663  0009E4  6E44               	movwf	_usb_rom_len,c
  4664  0009E6  6A45               	clrf	_usb_rom_len+1,c
  4665  0009E8  D17B               	goto	L4
  4666  0009EA                     l2823:
  4667                           
  4668                           ;usb_stack.c: 331: if (packet[2] >= usb_device_descriptor[17]) {
  4669  0009EA  EE20 F002          	lfsr	2,2
  4670  0009EE  5020               	movf	usb_handle_StandardDeviceRequest@packet,w,c
  4671  0009F0  26D9               	addwf	fsr2l,f,c
  4672  0009F2  5021               	movf	usb_handle_StandardDeviceRequest@packet+1,w,c
  4673  0009F4  22DA               	addwfc	fsr2h,f,c
  4674  0009F6  50DF               	movf	indf2,w,c
  4675  0009F8  6E12               	movwf	??_usb_handle_StandardDeviceRequest& (0+255),c
  4676  0009FA  0E11               	movlw	17
  4677  0009FC  6E13               	movwf	(??_usb_handle_StandardDeviceRequest+1)& (0+255),c
  4678  0009FE  6A14               	clrf	(??_usb_handle_StandardDeviceRequest+2)& (0+255),c
  4679  000A00  5013               	movf	??_usb_handle_StandardDeviceRequest+1,w,c
  4680  000A02  245C               	addwf	_usb_device_descriptor,w,c
  4681  000A04  6E15               	movwf	(??_usb_handle_StandardDeviceRequest+3)& (0+255),c
  4682  000A06  5014               	movf	??_usb_handle_StandardDeviceRequest+2,w,c
  4683  000A08  205D               	addwfc	_usb_device_descriptor+1,w,c
  4684  000A0A  6E16               	movwf	(??_usb_handle_StandardDeviceRequest+4)& (0+255),c
  4685  000A0C  0E00               	movlw	0
  4686  000A0E  BE14               	btfsc	??_usb_handle_StandardDeviceRequest+2,7,c
  4687  000A10  0EFF               	movlw	255
  4688  000A12  205E               	addwfc	_usb_device_descriptor+2,w,c
  4689  000A14  6E17               	movwf	(??_usb_handle_StandardDeviceRequest+5)& (0+255),c
  4690  000A16  C015  FFF6         	movff	??_usb_handle_StandardDeviceRequest+3,tblptrl
  4691  000A1A  C016  FFF7         	movff	??_usb_handle_StandardDeviceRequest+4,tblptrh
  4692  000A1E  C017  FFF8         	movff	??_usb_handle_StandardDeviceRequest+5,tblptru
  4693  000A22  0008               	tblrd		*
  4694  000A24  50F5               	movf	tablat,w,c
  4695  000A26  5C12               	subwf	??_usb_handle_StandardDeviceRequest,w,c
  4696  000A28  B0D8               	btfsc	status,0,c
  4697  000A2A  D182               	goto	l2869
  4698                           
  4699                           ;usb_stack.c: 334: }
  4700                           ;usb_stack.c: 336: usb_rom_ptr = usb_config_descriptor;
  4701                           
  4702                           ;usb_stack.c: 333: break;
  4703                           
  4704                           ;usb_stack.c: 332: usbrequesterrorflag = 1;
  4705  000A2C  C0D4  F02F         	movff	_usb_config_descriptor,_usb_rom_ptr
  4706  000A30  C0D5  F030         	movff	_usb_config_descriptor+1,_usb_rom_ptr+1
  4707  000A34  C0D6  F031         	movff	_usb_config_descriptor+2,_usb_rom_ptr+2
  4708                           
  4709                           ;usb_stack.c: 337: usb_rom_len = usb_rom_ptr[2] + usb_rom_ptr[3] * 256;
  4710  000A38  0E03               	movlw	3
  4711  000A3A  6E12               	movwf	??_usb_handle_StandardDeviceRequest& (0+255),c
  4712  000A3C  6A13               	clrf	(??_usb_handle_StandardDeviceRequest+1)& (0+255),c
  4713  000A3E  5012               	movf	??_usb_handle_StandardDeviceRequest,w,c
  4714  000A40  242F               	addwf	_usb_rom_ptr,w,c
  4715  000A42  6E14               	movwf	(??_usb_handle_StandardDeviceRequest+2)& (0+255),c
  4716  000A44  5013               	movf	??_usb_handle_StandardDeviceRequest+1,w,c
  4717  000A46  2030               	addwfc	_usb_rom_ptr+1,w,c
  4718  000A48  6E15               	movwf	(??_usb_handle_StandardDeviceRequest+3)& (0+255),c
  4719  000A4A  0E00               	movlw	0
  4720  000A4C  BE13               	btfsc	??_usb_handle_StandardDeviceRequest+1,7,c
  4721  000A4E  0EFF               	movlw	255
  4722  000A50  2031               	addwfc	_usb_rom_ptr+2,w,c
  4723  000A52  6E16               	movwf	(??_usb_handle_StandardDeviceRequest+4)& (0+255),c
  4724  000A54  C014  FFF6         	movff	??_usb_handle_StandardDeviceRequest+2,tblptrl
  4725  000A58  C015  FFF7         	movff	??_usb_handle_StandardDeviceRequest+3,tblptrh
  4726  000A5C  C016  FFF8         	movff	??_usb_handle_StandardDeviceRequest+4,tblptru
  4727  000A60  0008               	tblrd		*
  4728  000A62  50F5               	movf	tablat,w,c
  4729  000A64  6E18               	movwf	(??_usb_handle_StandardDeviceRequest+6)& (0+255),c
  4730  000A66  6A17               	clrf	(??_usb_handle_StandardDeviceRequest+5)& (0+255),c
  4731  000A68  0E02               	movlw	2
  4732  000A6A  6E19               	movwf	(??_usb_handle_StandardDeviceRequest+7)& (0+255),c
  4733  000A6C  6A1A               	clrf	(??_usb_handle_StandardDeviceRequest+8)& (0+255),c
  4734  000A6E  5019               	movf	??_usb_handle_StandardDeviceRequest+7,w,c
  4735  000A70  242F               	addwf	_usb_rom_ptr,w,c
  4736  000A72  6E1B               	movwf	(??_usb_handle_StandardDeviceRequest+9)& (0+255),c
  4737  000A74  501A               	movf	??_usb_handle_StandardDeviceRequest+8,w,c
  4738  000A76  2030               	addwfc	_usb_rom_ptr+1,w,c
  4739  000A78  6E1C               	movwf	(??_usb_handle_StandardDeviceRequest+10)& (0+255),c
  4740  000A7A  0E00               	movlw	0
  4741  000A7C  BE1A               	btfsc	??_usb_handle_StandardDeviceRequest+8,7,c
  4742  000A7E  0EFF               	movlw	255
  4743  000A80  2031               	addwfc	_usb_rom_ptr+2,w,c
  4744  000A82  6E1D               	movwf	(??_usb_handle_StandardDeviceRequest+11)& (0+255),c
  4745  000A84  C01B  FFF6         	movff	??_usb_handle_StandardDeviceRequest+9,tblptrl
  4746  000A88  C01C  FFF7         	movff	??_usb_handle_StandardDeviceRequest+10,tblptrh
  4747  000A8C  C01D  FFF8         	movff	??_usb_handle_StandardDeviceRequest+11,tblptru
  4748  000A90  0008               	tblrd		*
  4749  000A92  50F5               	movf	tablat,w,c
  4750  000A94  2417               	addwf	??_usb_handle_StandardDeviceRequest+5,w,c
  4751  000A96  6E44               	movwf	_usb_rom_len,c
  4752  000A98  0E00               	movlw	0
  4753  000A9A  2018               	addwfc	??_usb_handle_StandardDeviceRequest+6,w,c
  4754  000A9C  6E45               	movwf	_usb_rom_len+1,c
  4755                           
  4756                           ;usb_stack.c: 338: for (i = 0; i < packet[2]; i++) {
  4757  000A9E  0E00               	movlw	0
  4758  000AA0  6E1F               	movwf	usb_handle_StandardDeviceRequest@i+1,c
  4759  000AA2  0E00               	movlw	0
  4760  000AA4  6E1E               	movwf	usb_handle_StandardDeviceRequest@i,c
  4761  000AA6  D03D               	goto	l2837
  4762  000AA8                     l2831:
  4763                           
  4764                           ;usb_stack.c: 339: usb_rom_ptr += usb_rom_len;
  4765  000AA8  C044  FFE8         	movff	_usb_rom_len,wreg
  4766  000AAC  262F               	addwf	_usb_rom_ptr,f,c
  4767  000AAE  C045  FFE8         	movff	_usb_rom_len+1,wreg
  4768  000AB2  2230               	addwfc	_usb_rom_ptr+1,f,c
  4769  000AB4  0E00               	movlw	0
  4770  000AB6  2231               	addwfc	_usb_rom_ptr+2,f,c
  4771                           
  4772                           ;usb_stack.c: 340: usb_rom_len = usb_rom_ptr[2] + usb_rom_ptr[3] * 256;
  4773  000AB8  0E03               	movlw	3
  4774  000ABA  6E12               	movwf	??_usb_handle_StandardDeviceRequest& (0+255),c
  4775  000ABC  6A13               	clrf	(??_usb_handle_StandardDeviceRequest+1)& (0+255),c
  4776  000ABE  5012               	movf	??_usb_handle_StandardDeviceRequest,w,c
  4777  000AC0  242F               	addwf	_usb_rom_ptr,w,c
  4778  000AC2  6E14               	movwf	(??_usb_handle_StandardDeviceRequest+2)& (0+255),c
  4779  000AC4  5013               	movf	??_usb_handle_StandardDeviceRequest+1,w,c
  4780  000AC6  2030               	addwfc	_usb_rom_ptr+1,w,c
  4781  000AC8  6E15               	movwf	(??_usb_handle_StandardDeviceRequest+3)& (0+255),c
  4782  000ACA  0E00               	movlw	0
  4783  000ACC  BE13               	btfsc	??_usb_handle_StandardDeviceRequest+1,7,c
  4784  000ACE  0EFF               	movlw	255
  4785  000AD0  2031               	addwfc	_usb_rom_ptr+2,w,c
  4786  000AD2  6E16               	movwf	(??_usb_handle_StandardDeviceRequest+4)& (0+255),c
  4787  000AD4  C014  FFF6         	movff	??_usb_handle_StandardDeviceRequest+2,tblptrl
  4788  000AD8  C015  FFF7         	movff	??_usb_handle_StandardDeviceRequest+3,tblptrh
  4789  000ADC  C016  FFF8         	movff	??_usb_handle_StandardDeviceRequest+4,tblptru
  4790  000AE0  0008               	tblrd		*
  4791  000AE2  50F5               	movf	tablat,w,c
  4792  000AE4  6E18               	movwf	(??_usb_handle_StandardDeviceRequest+6)& (0+255),c
  4793  000AE6  6A17               	clrf	(??_usb_handle_StandardDeviceRequest+5)& (0+255),c
  4794  000AE8  0E02               	movlw	2
  4795  000AEA  6E19               	movwf	(??_usb_handle_StandardDeviceRequest+7)& (0+255),c
  4796  000AEC  6A1A               	clrf	(??_usb_handle_StandardDeviceRequest+8)& (0+255),c
  4797  000AEE  5019               	movf	??_usb_handle_StandardDeviceRequest+7,w,c
  4798  000AF0  242F               	addwf	_usb_rom_ptr,w,c
  4799  000AF2  6E1B               	movwf	(??_usb_handle_StandardDeviceRequest+9)& (0+255),c
  4800  000AF4  501A               	movf	??_usb_handle_StandardDeviceRequest+8,w,c
  4801  000AF6  2030               	addwfc	_usb_rom_ptr+1,w,c
  4802  000AF8  6E1C               	movwf	(??_usb_handle_StandardDeviceRequest+10)& (0+255),c
  4803  000AFA  0E00               	movlw	0
  4804  000AFC  BE1A               	btfsc	??_usb_handle_StandardDeviceRequest+8,7,c
  4805  000AFE  0EFF               	movlw	255
  4806  000B00  2031               	addwfc	_usb_rom_ptr+2,w,c
  4807  000B02  6E1D               	movwf	(??_usb_handle_StandardDeviceRequest+11)& (0+255),c
  4808  000B04  C01B  FFF6         	movff	??_usb_handle_StandardDeviceRequest+9,tblptrl
  4809  000B08  C01C  FFF7         	movff	??_usb_handle_StandardDeviceRequest+10,tblptrh
  4810  000B0C  C01D  FFF8         	movff	??_usb_handle_StandardDeviceRequest+11,tblptru
  4811  000B10  0008               	tblrd		*
  4812  000B12  50F5               	movf	tablat,w,c
  4813  000B14  2417               	addwf	??_usb_handle_StandardDeviceRequest+5,w,c
  4814  000B16  6E44               	movwf	_usb_rom_len,c
  4815  000B18  0E00               	movlw	0
  4816  000B1A  2018               	addwfc	??_usb_handle_StandardDeviceRequest+6,w,c
  4817  000B1C  6E45               	movwf	_usb_rom_len+1,c
  4818  000B1E  4A1E               	infsnz	usb_handle_StandardDeviceRequest@i,f,c
  4819  000B20  2A1F               	incf	usb_handle_StandardDeviceRequest@i+1,f,c
  4820  000B22                     l2837:
  4821  000B22  EE20 F002          	lfsr	2,2
  4822  000B26  5020               	movf	usb_handle_StandardDeviceRequest@packet,w,c
  4823  000B28  26D9               	addwf	fsr2l,f,c
  4824  000B2A  5021               	movf	usb_handle_StandardDeviceRequest@packet+1,w,c
  4825  000B2C  22DA               	addwfc	fsr2h,f,c
  4826  000B2E  50DF               	movf	indf2,w,c
  4827  000B30  6E12               	movwf	??_usb_handle_StandardDeviceRequest& (0+255),c
  4828  000B32  6A13               	clrf	(??_usb_handle_StandardDeviceRequest+1)& (0+255),c
  4829  000B34  501F               	movf	usb_handle_StandardDeviceRequest@i+1,w,c
  4830  000B36  0A80               	xorlw	128
  4831  000B38  6E14               	movwf	(??_usb_handle_StandardDeviceRequest+2)& (0+255),c
  4832  000B3A  5012               	movf	??_usb_handle_StandardDeviceRequest,w,c
  4833  000B3C  5C1E               	subwf	usb_handle_StandardDeviceRequest@i,w,c
  4834  000B3E  5013               	movf	??_usb_handle_StandardDeviceRequest+1,w,c
  4835  000B40  0A80               	xorlw	128
  4836  000B42  5814               	subwfb	(??_usb_handle_StandardDeviceRequest+2)& (0+255),w,c
  4837  000B44  A0D8               	btfss	status,0,c
  4838  000B46  D7B0               	goto	l2831
  4839                           
  4840                           ;usb_stack.c: 341: }
  4841                           ;usb_stack.c: 342: if ((packet[7] < usb_rom_ptr[3]) ||
  4842                           ;usb_stack.c: 343: (packet[7] == usb_rom_ptr[3] && packet[6] < usb_rom_ptr[2]))
  4843  000B48  EE20 F007          	lfsr	2,7
  4844  000B4C  5020               	movf	usb_handle_StandardDeviceRequest@packet,w,c
  4845  000B4E  26D9               	addwf	fsr2l,f,c
  4846  000B50  5021               	movf	usb_handle_StandardDeviceRequest@packet+1,w,c
  4847  000B52  22DA               	addwfc	fsr2h,f,c
  4848  000B54  50DF               	movf	indf2,w,c
  4849  000B56  6E12               	movwf	??_usb_handle_StandardDeviceRequest& (0+255),c
  4850  000B58  0E03               	movlw	3
  4851  000B5A  6E13               	movwf	(??_usb_handle_StandardDeviceRequest+1)& (0+255),c
  4852  000B5C  6A14               	clrf	(??_usb_handle_StandardDeviceRequest+2)& (0+255),c
  4853  000B5E  5013               	movf	??_usb_handle_StandardDeviceRequest+1,w,c
  4854  000B60  242F               	addwf	_usb_rom_ptr,w,c
  4855  000B62  6E15               	movwf	(??_usb_handle_StandardDeviceRequest+3)& (0+255),c
  4856  000B64  5014               	movf	??_usb_handle_StandardDeviceRequest+2,w,c
  4857  000B66  2030               	addwfc	_usb_rom_ptr+1,w,c
  4858  000B68  6E16               	movwf	(??_usb_handle_StandardDeviceRequest+4)& (0+255),c
  4859  000B6A  0E00               	movlw	0
  4860  000B6C  BE14               	btfsc	??_usb_handle_StandardDeviceRequest+2,7,c
  4861  000B6E  0EFF               	movlw	255
  4862  000B70  2031               	addwfc	_usb_rom_ptr+2,w,c
  4863  000B72  6E17               	movwf	(??_usb_handle_StandardDeviceRequest+5)& (0+255),c
  4864  000B74  C015  FFF6         	movff	??_usb_handle_StandardDeviceRequest+3,tblptrl
  4865  000B78  C016  FFF7         	movff	??_usb_handle_StandardDeviceRequest+4,tblptrh
  4866  000B7C  C017  FFF8         	movff	??_usb_handle_StandardDeviceRequest+5,tblptru
  4867  000B80  0008               	tblrd		*
  4868  000B82  50F5               	movf	tablat,w,c
  4869  000B84  5C12               	subwf	??_usb_handle_StandardDeviceRequest,w,c
  4870  000B86  A0D8               	btfss	status,0,c
  4871  000B88  D03F               	goto	l2845
  4872  000B8A  EE20 F007          	lfsr	2,7
  4873  000B8E  5020               	movf	usb_handle_StandardDeviceRequest@packet,w,c
  4874  000B90  26D9               	addwf	fsr2l,f,c
  4875  000B92  5021               	movf	usb_handle_StandardDeviceRequest@packet+1,w,c
  4876  000B94  22DA               	addwfc	fsr2h,f,c
  4877  000B96  0E03               	movlw	3
  4878  000B98  6E12               	movwf	??_usb_handle_StandardDeviceRequest& (0+255),c
  4879  000B9A  6A13               	clrf	(??_usb_handle_StandardDeviceRequest+1)& (0+255),c
  4880  000B9C  5012               	movf	??_usb_handle_StandardDeviceRequest,w,c
  4881  000B9E  242F               	addwf	_usb_rom_ptr,w,c
  4882  000BA0  6E14               	movwf	(??_usb_handle_StandardDeviceRequest+2)& (0+255),c
  4883  000BA2  5013               	movf	??_usb_handle_StandardDeviceRequest+1,w,c
  4884  000BA4  2030               	addwfc	_usb_rom_ptr+1,w,c
  4885  000BA6  6E15               	movwf	(??_usb_handle_StandardDeviceRequest+3)& (0+255),c
  4886  000BA8  0E00               	movlw	0
  4887  000BAA  BE13               	btfsc	??_usb_handle_StandardDeviceRequest+1,7,c
  4888  000BAC  0EFF               	movlw	255
  4889  000BAE  2031               	addwfc	_usb_rom_ptr+2,w,c
  4890  000BB0  6E16               	movwf	(??_usb_handle_StandardDeviceRequest+4)& (0+255),c
  4891  000BB2  C014  FFF6         	movff	??_usb_handle_StandardDeviceRequest+2,tblptrl
  4892  000BB6  C015  FFF7         	movff	??_usb_handle_StandardDeviceRequest+3,tblptrh
  4893  000BBA  C016  FFF8         	movff	??_usb_handle_StandardDeviceRequest+4,tblptru
  4894  000BBE  0008               	tblrd		*
  4895  000BC0  50F5               	movf	tablat,w,c
  4896  000BC2  62DF               	cpfseq	indf2,c
  4897  000BC4  D0CD               	goto	l378
  4898  000BC6  EE20 F006          	lfsr	2,6
  4899  000BCA  5020               	movf	usb_handle_StandardDeviceRequest@packet,w,c
  4900  000BCC  26D9               	addwf	fsr2l,f,c
  4901  000BCE  5021               	movf	usb_handle_StandardDeviceRequest@packet+1,w,c
  4902  000BD0  22DA               	addwfc	fsr2h,f,c
  4903  000BD2  50DF               	movf	indf2,w,c
  4904  000BD4  6E12               	movwf	??_usb_handle_StandardDeviceRequest& (0+255),c
  4905  000BD6  0E02               	movlw	2
  4906  000BD8  6E13               	movwf	(??_usb_handle_StandardDeviceRequest+1)& (0+255),c
  4907  000BDA  6A14               	clrf	(??_usb_handle_StandardDeviceRequest+2)& (0+255),c
  4908  000BDC  5013               	movf	??_usb_handle_StandardDeviceRequest+1,w,c
  4909  000BDE  242F               	addwf	_usb_rom_ptr,w,c
  4910  000BE0  6E15               	movwf	(??_usb_handle_StandardDeviceRequest+3)& (0+255),c
  4911  000BE2  5014               	movf	??_usb_handle_StandardDeviceRequest+2,w,c
  4912  000BE4  2030               	addwfc	_usb_rom_ptr+1,w,c
  4913  000BE6  6E16               	movwf	(??_usb_handle_StandardDeviceRequest+4)& (0+255),c
  4914  000BE8  0E00               	movlw	0
  4915  000BEA  BE14               	btfsc	??_usb_handle_StandardDeviceRequest+2,7,c
  4916  000BEC  0EFF               	movlw	255
  4917  000BEE  2031               	addwfc	_usb_rom_ptr+2,w,c
  4918  000BF0  6E17               	movwf	(??_usb_handle_StandardDeviceRequest+5)& (0+255),c
  4919  000BF2  C015  FFF6         	movff	??_usb_handle_StandardDeviceRequest+3,tblptrl
  4920  000BF6  C016  FFF7         	movff	??_usb_handle_StandardDeviceRequest+4,tblptrh
  4921  000BFA  C017  FFF8         	movff	??_usb_handle_StandardDeviceRequest+5,tblptru
  4922  000BFE  0008               	tblrd		*
  4923  000C00  50F5               	movf	tablat,w,c
  4924  000C02  5C12               	subwf	??_usb_handle_StandardDeviceRequest,w,c
  4925  000C04  B0D8               	btfsc	status,0,c
  4926  000C06  D0AC               	goto	l378
  4927  000C08                     l2845:
  4928                           
  4929                           ;usb_stack.c: 344: usb_rom_len = packet[6] + packet[7] * 256;
  4930  000C08  EE20 F007          	lfsr	2,7
  4931  000C0C  5020               	movf	usb_handle_StandardDeviceRequest@packet,w,c
  4932  000C0E  26D9               	addwf	fsr2l,f,c
  4933  000C10  5021               	movf	usb_handle_StandardDeviceRequest@packet+1,w,c
  4934  000C12  22DA               	addwfc	fsr2h,f,c
  4935  000C14  50DF               	movf	indf2,w,c
  4936  000C16  6E12               	movwf	??_usb_handle_StandardDeviceRequest& (0+255),c
  4937  000C18  5012               	movf	??_usb_handle_StandardDeviceRequest,w,c
  4938  000C1A  6E14               	movwf	(??_usb_handle_StandardDeviceRequest+2)& (0+255),c
  4939  000C1C  6A13               	clrf	(??_usb_handle_StandardDeviceRequest+1)& (0+255),c
  4940  000C1E  EE20 F006          	lfsr	2,6
  4941  000C22  5020               	movf	usb_handle_StandardDeviceRequest@packet,w,c
  4942  000C24  26D9               	addwf	fsr2l,f,c
  4943  000C26  5021               	movf	usb_handle_StandardDeviceRequest@packet+1,w,c
  4944  000C28  22DA               	addwfc	fsr2h,f,c
  4945  000C2A  50DF               	movf	indf2,w,c
  4946  000C2C  6E15               	movwf	(??_usb_handle_StandardDeviceRequest+3)& (0+255),c
  4947  000C2E  5015               	movf	??_usb_handle_StandardDeviceRequest+3,w,c
  4948  000C30  2413               	addwf	??_usb_handle_StandardDeviceRequest+1,w,c
  4949  000C32  6E44               	movwf	_usb_rom_len,c
  4950  000C34  0E00               	movlw	0
  4951  000C36  2014               	addwfc	??_usb_handle_StandardDeviceRequest+2,w,c
  4952  000C38  6E45               	movwf	_usb_rom_len+1,c
  4953  000C3A  D092               	goto	l378
  4954  000C3C                     l2847:
  4955                           
  4956                           ;usb_stack.c: 348: if (packet[2] >= usb_num_string_descriptors) {
  4957  000C3C  EE20 F002          	lfsr	2,2
  4958  000C40  5020               	movf	usb_handle_StandardDeviceRequest@packet,w,c
  4959  000C42  26D9               	addwf	fsr2l,f,c
  4960  000C44  5021               	movf	usb_handle_StandardDeviceRequest@packet+1,w,c
  4961  000C46  22DA               	addwfc	fsr2h,f,c
  4962  000C48  50DF               	movf	indf2,w,c
  4963  000C4A  6E12               	movwf	??_usb_handle_StandardDeviceRequest& (0+255),c
  4964  000C4C  6A13               	clrf	(??_usb_handle_StandardDeviceRequest+1)& (0+255),c
  4965  000C4E  5013               	movf	??_usb_handle_StandardDeviceRequest+1,w,c
  4966  000C50  0A80               	xorlw	128
  4967  000C52  6E14               	movwf	(??_usb_handle_StandardDeviceRequest+2)& (0+255),c
  4968  000C54  0100               	movlb	0	; () banked
  4969  000C56  51DC               	movf	_usb_num_string_descriptors& (0+255),w,b
  4970  000C58  5C12               	subwf	??_usb_handle_StandardDeviceRequest,w,c
  4971  000C5A  0100               	movlb	0	; () banked
  4972  000C5C  0100               	movlb	0	; () banked
  4973  000C5E  51DD               	movf	(_usb_num_string_descriptors+1)& (0+255),w,b
  4974  000C60  0A80               	xorlw	128
  4975  000C62  5814               	subwfb	(??_usb_handle_StandardDeviceRequest+2)& (0+255),w,c
  4976  000C64  B0D8               	btfsc	status,0,c
  4977  000C66  D064               	goto	l2869
  4978                           
  4979                           ; BSR set to: 0
  4980                           ;usb_stack.c: 351: }
  4981                           ;usb_stack.c: 352: usb_rom_ptr = usb_string_descriptor;
  4982                           
  4983                           ;usb_stack.c: 350: break;
  4984                           
  4985                           ; BSR set to: 0
  4986                           ;usb_stack.c: 349: usbrequesterrorflag = 1;
  4987  000C68  C0D7  F02F         	movff	_usb_string_descriptor,_usb_rom_ptr
  4988  000C6C  C0D8  F030         	movff	_usb_string_descriptor+1,_usb_rom_ptr+1
  4989  000C70  C0D9  F031         	movff	_usb_string_descriptor+2,_usb_rom_ptr+2
  4990                           
  4991                           ; BSR set to: 0
  4992                           ;usb_stack.c: 353: usb_rom_len = usb_rom_ptr[0];
  4993  000C74  C02F  FFF6         	movff	_usb_rom_ptr,tblptrl
  4994  000C78  C030  FFF7         	movff	_usb_rom_ptr+1,tblptrh
  4995  000C7C  C031  FFF8         	movff	_usb_rom_ptr+2,tblptru
  4996  000C80  0008               	tblrd		*
  4997  000C82  50F5               	movf	tablat,w,c
  4998  000C84  6E44               	movwf	_usb_rom_len,c
  4999  000C86  6A45               	clrf	_usb_rom_len+1,c
  5000                           
  5001                           ; BSR set to: 0
  5002                           ;usb_stack.c: 354: for (i = 0; i < packet[2]; i++) {
  5003  000C88  0E00               	movlw	0
  5004  000C8A  6E1F               	movwf	usb_handle_StandardDeviceRequest@i+1,c
  5005  000C8C  0E00               	movlw	0
  5006  000C8E  6E1E               	movwf	usb_handle_StandardDeviceRequest@i,c
  5007  000C90  D014               	goto	l2861
  5008  000C92                     l2855:
  5009                           
  5010                           ;usb_stack.c: 355: usb_rom_ptr += usb_rom_len;
  5011  000C92  C044  FFE8         	movff	_usb_rom_len,wreg
  5012  000C96  262F               	addwf	_usb_rom_ptr,f,c
  5013  000C98  C045  FFE8         	movff	_usb_rom_len+1,wreg
  5014  000C9C  2230               	addwfc	_usb_rom_ptr+1,f,c
  5015  000C9E  0E00               	movlw	0
  5016  000CA0  2231               	addwfc	_usb_rom_ptr+2,f,c
  5017                           
  5018                           ;usb_stack.c: 356: usb_rom_len = usb_rom_ptr[0];
  5019  000CA2  C02F  FFF6         	movff	_usb_rom_ptr,tblptrl
  5020  000CA6  C030  FFF7         	movff	_usb_rom_ptr+1,tblptrh
  5021  000CAA  C031  FFF8         	movff	_usb_rom_ptr+2,tblptru
  5022  000CAE  0008               	tblrd		*
  5023  000CB0  50F5               	movf	tablat,w,c
  5024  000CB2  6E44               	movwf	_usb_rom_len,c
  5025  000CB4  6A45               	clrf	_usb_rom_len+1,c
  5026  000CB6  4A1E               	infsnz	usb_handle_StandardDeviceRequest@i,f,c
  5027  000CB8  2A1F               	incf	usb_handle_StandardDeviceRequest@i+1,f,c
  5028  000CBA                     l2861:
  5029  000CBA  EE20 F002          	lfsr	2,2
  5030  000CBE  5020               	movf	usb_handle_StandardDeviceRequest@packet,w,c
  5031  000CC0  26D9               	addwf	fsr2l,f,c
  5032  000CC2  5021               	movf	usb_handle_StandardDeviceRequest@packet+1,w,c
  5033  000CC4  22DA               	addwfc	fsr2h,f,c
  5034  000CC6  50DF               	movf	indf2,w,c
  5035  000CC8  6E12               	movwf	??_usb_handle_StandardDeviceRequest& (0+255),c
  5036  000CCA  6A13               	clrf	(??_usb_handle_StandardDeviceRequest+1)& (0+255),c
  5037  000CCC  501F               	movf	usb_handle_StandardDeviceRequest@i+1,w,c
  5038  000CCE  0A80               	xorlw	128
  5039  000CD0  6E14               	movwf	(??_usb_handle_StandardDeviceRequest+2)& (0+255),c
  5040  000CD2  5012               	movf	??_usb_handle_StandardDeviceRequest,w,c
  5041  000CD4  5C1E               	subwf	usb_handle_StandardDeviceRequest@i,w,c
  5042  000CD6  5013               	movf	??_usb_handle_StandardDeviceRequest+1,w,c
  5043  000CD8  0A80               	xorlw	128
  5044  000CDA  5814               	subwfb	(??_usb_handle_StandardDeviceRequest+2)& (0+255),w,c
  5045  000CDC  A0D8               	btfss	status,0,c
  5046  000CDE  D7D9               	goto	l2855
  5047  000CE0                     L4:
  5048                           
  5049                           ;usb_stack.c: 357: }
  5050                           ;usb_stack.c: 358: if ((0 == packet[7] && packet[6] < usb_rom_ptr[0]))
  5051  000CE0  EE20 F007          	lfsr	2,7
  5052  000CE4  5020               	movf	usb_handle_StandardDeviceRequest@packet,w,c
  5053  000CE6  26D9               	addwf	fsr2l,f,c
  5054  000CE8  5021               	movf	usb_handle_StandardDeviceRequest@packet+1,w,c
  5055  000CEA  22DA               	addwfc	fsr2h,f,c
  5056  000CEC  50DF               	movf	indf2,w,c
  5057  000CEE  A4D8               	btfss	status,2,c
  5058  000CF0  D037               	goto	l378
  5059  000CF2  EE20 F006          	lfsr	2,6
  5060  000CF6  5020               	movf	usb_handle_StandardDeviceRequest@packet,w,c
  5061  000CF8  26D9               	addwf	fsr2l,f,c
  5062  000CFA  5021               	movf	usb_handle_StandardDeviceRequest@packet+1,w,c
  5063  000CFC  22DA               	addwfc	fsr2h,f,c
  5064  000CFE  50DF               	movf	indf2,w,c
  5065  000D00  6E12               	movwf	??_usb_handle_StandardDeviceRequest& (0+255),c
  5066  000D02  C02F  FFF6         	movff	_usb_rom_ptr,tblptrl
  5067  000D06  C030  FFF7         	movff	_usb_rom_ptr+1,tblptrh
  5068  000D0A  C031  FFF8         	movff	_usb_rom_ptr+2,tblptru
  5069  000D0E  0008               	tblrd		*
  5070  000D10  50F5               	movf	tablat,w,c
  5071  000D12  5C12               	subwf	??_usb_handle_StandardDeviceRequest,w,c
  5072  000D14  B0D8               	btfsc	status,0,c
  5073  000D16  D024               	goto	l378
  5074                           
  5075                           ;usb_stack.c: 359: usb_rom_len = packet[6];
  5076  000D18  EE20 F006          	lfsr	2,6
  5077  000D1C  5020               	movf	usb_handle_StandardDeviceRequest@packet,w,c
  5078  000D1E  26D9               	addwf	fsr2l,f,c
  5079  000D20  5021               	movf	usb_handle_StandardDeviceRequest@packet+1,w,c
  5080  000D22  22DA               	addwfc	fsr2h,f,c
  5081  000D24  50DF               	movf	indf2,w,c
  5082  000D26  6E12               	movwf	??_usb_handle_StandardDeviceRequest& (0+255),c
  5083  000D28  5012               	movf	??_usb_handle_StandardDeviceRequest,w,c
  5084  000D2A  6E44               	movwf	_usb_rom_len,c
  5085  000D2C  6A45               	clrf	_usb_rom_len+1,c
  5086  000D2E  D018               	goto	l378
  5087  000D30                     l2869:
  5088                           
  5089                           ;usb_stack.c: 364: usbrequesterrorflag = 1;
  5090  000D30  0E01               	movlw	1
  5091  000D32  6E5B               	movwf	_usbrequesterrorflag,c	;volatile
  5092                           
  5093                           ;usb_stack.c: 365: }
  5094  000D34  D015               	goto	l378
  5095  000D36                     l2871:
  5096  000D36  EE20 F003          	lfsr	2,3
  5097  000D3A  5020               	movf	usb_handle_StandardDeviceRequest@packet,w,c
  5098  000D3C  26D9               	addwf	fsr2l,f,c
  5099  000D3E  5021               	movf	usb_handle_StandardDeviceRequest@packet+1,w,c
  5100  000D40  22DA               	addwfc	fsr2h,f,c
  5101  000D42  50DF               	movf	indf2,w,c
  5102                           
  5103                           ; Switch size 1, requested type "space"
  5104                           ; Number of cases is 5, Range of values is 1 to 5
  5105                           ; switch strategies available:
  5106                           ; Name         Instructions Cycles
  5107                           ; simple_byte           16     9 (average)
  5108                           ;	Chosen strategy is simple_byte
  5109  000D44  0A01               	xorlw	1	; case 1
  5110  000D46  B4D8               	btfsc	status,2,c
  5111  000D48  D63F               	goto	l376
  5112  000D4A  0A03               	xorlw	3	; case 2
  5113  000D4C  B4D8               	btfsc	status,2,c
  5114  000D4E  D64D               	goto	l2823
  5115  000D50  0A01               	xorlw	1	; case 3
  5116  000D52  B4D8               	btfsc	status,2,c
  5117  000D54  D773               	goto	l2847
  5118  000D56  0A07               	xorlw	7	; case 4
  5119  000D58  B4D8               	btfsc	status,2,c
  5120  000D5A  D7EA               	goto	l2869
  5121  000D5C  0A01               	xorlw	1	; case 5
  5122  000D5E  D7E8               	goto	l2869
  5123  000D60                     l378:
  5124                           
  5125                           ;usb_stack.c: 366: if (0 == usbrequesterrorflag) {
  5126  000D60  665B               	tstfsz	_usbrequesterrorflag,c	;volatile
  5127  000D62  D00D               	goto	l2877
  5128                           
  5129                           ;usb_stack.c: 367: usb_send_rom();
  5130  000D64  EC5E  F00C         	call	_usb_send_rom	;wreg free
  5131                           
  5132                           ;usb_stack.c: 368: usb_set_in_handler(0, usb_send_rom);
  5133  000D68  0E00               	movlw	0
  5134  000D6A  6E02               	movwf	?_usb_set_in_handler+1,c
  5135  000D6C  0E00               	movlw	0
  5136  000D6E  6E01               	movwf	?_usb_set_in_handler,c
  5137  000D70  0E18               	movlw	high _usb_send_rom
  5138  000D72  6E04               	movwf	?_usb_set_in_handler+3,c
  5139  000D74  0EBC               	movlw	low _usb_send_rom
  5140  000D76  6E03               	movwf	?_usb_set_in_handler+2,c
  5141  000D78  ECCB  F010         	call	_usb_set_in_handler	;wreg free
  5142                           
  5143                           ;usb_stack.c: 369: } else {
  5144  000D7C  D069               	goto	l406
  5145  000D7E                     l2877:
  5146                           
  5147                           ;usb_stack.c: 370: usb_RequestError();
  5148  000D7E  ECF6  F010         	call	_usb_RequestError	;wreg free
  5149  000D82  D066               	goto	l406
  5150  000D84                     l2879:
  5151                           
  5152                           ;usb_stack.c: 375: EP0_Inbdp->BDADDR[0] = usb_current_cfg;
  5153  000D84  EE20 F002          	lfsr	2,2
  5154  000D88  5036               	movf	_EP0_Inbdp,w,c
  5155  000D8A  26D9               	addwf	fsr2l,f,c
  5156  000D8C  5037               	movf	_EP0_Inbdp+1,w,c
  5157  000D8E  22DA               	addwfc	fsr2h,f,c
  5158  000D90  CFDE F012          	movff	postinc2,??_usb_handle_StandardDeviceRequest
  5159  000D94  CFDD F013          	movff	postdec2,??_usb_handle_StandardDeviceRequest+1
  5160  000D98  C012  FFD9         	movff	??_usb_handle_StandardDeviceRequest,fsr2l
  5161  000D9C  C013  FFDA         	movff	??_usb_handle_StandardDeviceRequest+1,fsr2h
  5162  000DA0  C040  FFDF         	movff	_usb_current_cfg,indf2
  5163                           
  5164                           ;usb_stack.c: 376: usb_ack_dat1(1);
  5165  000DA4  0E00               	movlw	0
  5166  000DA6  6E02               	movwf	?_usb_ack_dat1+1,c
  5167  000DA8  0E01               	movlw	1
  5168  000DAA  6E01               	movwf	?_usb_ack_dat1,c
  5169  000DAC  EC1A  F011         	call	_usb_ack_dat1	;wreg free
  5170                           
  5171                           ;usb_stack.c: 377: break;
  5172  000DB0  D04F               	goto	l406
  5173  000DB2                     l2883:
  5174                           
  5175                           ;usb_stack.c: 380: if (1u >= packet[2]) {
  5176  000DB2  EE20 F002          	lfsr	2,2
  5177  000DB6  5020               	movf	usb_handle_StandardDeviceRequest@packet,w,c
  5178  000DB8  26D9               	addwf	fsr2l,f,c
  5179  000DBA  5021               	movf	usb_handle_StandardDeviceRequest@packet+1,w,c
  5180  000DBC  22DA               	addwfc	fsr2h,f,c
  5181  000DBE  50DF               	movf	indf2,w,c
  5182  000DC0  6E12               	movwf	??_usb_handle_StandardDeviceRequest& (0+255),c
  5183  000DC2  0E02               	movlw	2
  5184  000DC4  5C12               	subwf	??_usb_handle_StandardDeviceRequest,w,c
  5185  000DC6  B0D8               	btfsc	status,0,c
  5186  000DC8  D01D               	goto	l2897
  5187                           
  5188                           ;usb_stack.c: 383: usb_current_cfg = packet[2];
  5189  000DCA  EE20 F002          	lfsr	2,2
  5190  000DCE  5020               	movf	usb_handle_StandardDeviceRequest@packet,w,c
  5191  000DD0  26D9               	addwf	fsr2l,f,c
  5192  000DD2  5021               	movf	usb_handle_StandardDeviceRequest@packet+1,w,c
  5193  000DD4  22DA               	addwfc	fsr2h,f,c
  5194  000DD6  50DF               	movf	indf2,w,c
  5195  000DD8  6E12               	movwf	??_usb_handle_StandardDeviceRequest& (0+255),c
  5196  000DDA  5012               	movf	??_usb_handle_StandardDeviceRequest,w,c
  5197  000DDC  6E40               	movwf	_usb_current_cfg,c
  5198  000DDE  6A41               	clrf	_usb_current_cfg+1,c
  5199                           
  5200                           ;usb_stack.c: 384: if (usb_current_cfg != 0) {
  5201  000DE0  5041               	movf	_usb_current_cfg+1,w,c
  5202  000DE2  1040               	iorwf	_usb_current_cfg,w,c
  5203  000DE4  B4D8               	btfsc	status,2,c
  5204  000DE6  D005               	goto	l2893
  5205                           
  5206                           ;usb_stack.c: 390: usb_device_state = CONFIGURED_STATE;
  5207  000DE8  0E20               	movlw	32
  5208  000DEA  6E5A               	movwf	_usb_device_state,c	;volatile
  5209                           
  5210                           ;usb_stack.c: 391: user_configured_init();
  5211  000DEC  ECCA  F00B         	call	_user_configured_init	;wreg free
  5212                           
  5213                           ;usb_stack.c: 392: } else {
  5214  000DF0  D002               	goto	l2895
  5215  000DF2                     l2893:
  5216                           
  5217                           ;usb_stack.c: 393: usb_device_state = ADDRESS_STATE;
  5218  000DF2  0E10               	movlw	16
  5219  000DF4  6E5A               	movwf	_usb_device_state,c	;volatile
  5220  000DF6                     l2895:
  5221                           
  5222                           ;usb_stack.c: 394: }
  5223                           ;usb_stack.c: 396: usb_ack_dat1(0);
  5224  000DF6  0E00               	movlw	0
  5225  000DF8  6E02               	movwf	?_usb_ack_dat1+1,c
  5226  000DFA  0E00               	movlw	0
  5227  000DFC  6E01               	movwf	?_usb_ack_dat1,c
  5228  000DFE  EC1A  F011         	call	_usb_ack_dat1	;wreg free
  5229                           
  5230                           ;usb_stack.c: 398: } else
  5231  000E02  D026               	goto	l406
  5232  000E04                     l2897:
  5233                           
  5234                           ;usb_stack.c: 399: usb_RequestError();
  5235  000E04  ECF6  F010         	call	_usb_RequestError	;wreg free
  5236  000E08  D023               	goto	l406
  5237  000E0A                     l2899:
  5238                           
  5239                           ;usb_stack.c: 404: usb_RequestError();
  5240  000E0A  ECF6  F010         	call	_usb_RequestError	;wreg free
  5241                           
  5242                           ;usb_stack.c: 405: }
  5243  000E0E  D020               	goto	l406
  5244  000E10                     l2901:
  5245  000E10  EE20 F001          	lfsr	2,1
  5246  000E14  5020               	movf	usb_handle_StandardDeviceRequest@packet,w,c
  5247  000E16  26D9               	addwf	fsr2l,f,c
  5248  000E18  5021               	movf	usb_handle_StandardDeviceRequest@packet+1,w,c
  5249  000E1A  22DA               	addwfc	fsr2h,f,c
  5250  000E1C  50DF               	movf	indf2,w,c
  5251                           
  5252                           ; Switch size 1, requested type "space"
  5253                           ; Number of cases is 8, Range of values is 0 to 9
  5254                           ; switch strategies available:
  5255                           ; Name         Instructions Cycles
  5256                           ; simple_byte           25    13 (average)
  5257                           ;	Chosen strategy is simple_byte
  5258  000E1E  0A00               	xorlw	0	; case 0
  5259  000E20  B4D8               	btfsc	status,2,c
  5260  000E22  D550               	goto	l2783
  5261  000E24  0A01               	xorlw	1	; case 1
  5262  000E26  B4D8               	btfsc	status,2,c
  5263  000E28  D576               	goto	l2787
  5264  000E2A  0A02               	xorlw	2	; case 3
  5265  000E2C  B4D8               	btfsc	status,2,c
  5266  000E2E  D587               	goto	l2795
  5267  000E30  0A06               	xorlw	6	; case 5
  5268  000E32  B4D8               	btfsc	status,2,c
  5269  000E34  D598               	goto	l2803
  5270  000E36  0A03               	xorlw	3	; case 6
  5271  000E38  B4D8               	btfsc	status,2,c
  5272  000E3A  D77D               	goto	l2871
  5273  000E3C  0A01               	xorlw	1	; case 7
  5274  000E3E  B4D8               	btfsc	status,2,c
  5275  000E40  D7E4               	goto	l2899
  5276  000E42  0A0F               	xorlw	15	; case 8
  5277  000E44  B4D8               	btfsc	status,2,c
  5278  000E46  D79E               	goto	l2879
  5279  000E48  0A01               	xorlw	1	; case 9
  5280  000E4A  B4D8               	btfsc	status,2,c
  5281  000E4C  D7B2               	goto	l2883
  5282  000E4E  D7DD               	goto	l2899
  5283  000E50                     l406:
  5284  000E50  0012               	return	
  5285  000E52                     __end_of_usb_handle_StandardDeviceRequest:
  5286                           	opt stack 0
  5287                           tosu	equ	0xFFF
  5288                           tosh	equ	0xFFE
  5289                           tosl	equ	0xFFD
  5290                           pclath	equ	0xFFA
  5291                           tblptru	equ	0xFF8
  5292                           tblptrh	equ	0xFF7
  5293                           tblptrl	equ	0xFF6
  5294                           tablat	equ	0xFF5
  5295                           prodh	equ	0xFF4
  5296                           prodl	equ	0xFF3
  5297                           postinc0	equ	0xFEE
  5298                           wreg	equ	0xFE8
  5299                           indf1	equ	0xFE7
  5300                           postdec1	equ	0xFE5
  5301                           fsr1h	equ	0xFE2
  5302                           fsr1l	equ	0xFE1
  5303                           indf2	equ	0xFDF
  5304                           postinc2	equ	0xFDE
  5305                           postdec2	equ	0xFDD
  5306                           plusw2	equ	0xFDB
  5307                           fsr2h	equ	0xFDA
  5308                           fsr2l	equ	0xFD9
  5309                           status	equ	0xFD8
  5310                           
  5311 ;; *************** function _user_configured_init *****************
  5312 ;; Defined at:
  5313 ;;		line 85 in file "../dp_usb/cdc.c"
  5314 ;; Parameters:    Size  Location     Type
  5315 ;;		None
  5316 ;; Auto vars:     Size  Location     Type
  5317 ;;		None
  5318 ;; Return value:  Size  Location     Type
  5319 ;;		None               void
  5320 ;; Registers used:
  5321 ;;		wreg, fsr2l, fsr2h, status,2, status,0, cstack
  5322 ;; Tracked objects:
  5323 ;;		On entry : 0/0
  5324 ;;		On exit  : 0/0
  5325 ;;		Unchanged: 0/0
  5326 ;; Data sizes:     COMRAM   BANK0   BANK1   BANK2   BANK3   BANK4   BANK5   BANK6   BANK7
  5327 ;;      Params:         0       0       0       0       0       0       0       0       0
  5328 ;;      Locals:         0       0       0       0       0       0       0       0       0
  5329 ;;      Temps:          1       0       0       0       0       0       0       0       0
  5330 ;;      Totals:         1       0       0       0       0       0       0       0       0
  5331 ;;Total ram usage:        1 bytes
  5332 ;; Hardware stack levels used:    1
  5333 ;; Hardware stack levels required when called:    1
  5334 ;; This function calls:
  5335 ;;		_usb_register_class_setup_handler
  5336 ;;		_usb_set_in_handler
  5337 ;;		_usb_set_out_handler
  5338 ;; This function is called by:
  5339 ;;		_usb_handle_StandardDeviceRequest
  5340 ;; This function uses a non-reentrant model
  5341 ;;
  5342                           
  5343                           	psect	text27
  5344  001794                     __ptext27:
  5345                           	opt stack 0
  5346  001794                     _user_configured_init:
  5347                           	opt stack 22
  5348                           
  5349                           ;cdc.c: 94: usb_set_in_handler(1, (usb_handler_t) 0);
  5350                           
  5351                           ;incstack = 0
  5352                           ;incstack = 0
  5353  001794  0E00               	movlw	0
  5354  001796  6E02               	movwf	?_usb_set_in_handler+1,c
  5355  001798  0E01               	movlw	1
  5356  00179A  6E01               	movwf	?_usb_set_in_handler,c
  5357  00179C  0E00               	movlw	0
  5358  00179E  6E04               	movwf	?_usb_set_in_handler+3,c
  5359  0017A0  0E00               	movlw	0
  5360  0017A2  6E03               	movwf	?_usb_set_in_handler+2,c
  5361  0017A4  ECCB  F010         	call	_usb_set_in_handler	;wreg free
  5362                           
  5363                           ;cdc.c: 95: usb_set_in_handler(2, (usb_handler_t) 0);
  5364  0017A8  0E00               	movlw	0
  5365  0017AA  6E02               	movwf	?_usb_set_in_handler+1,c
  5366  0017AC  0E02               	movlw	2
  5367  0017AE  6E01               	movwf	?_usb_set_in_handler,c
  5368  0017B0  0E00               	movlw	0
  5369  0017B2  6E04               	movwf	?_usb_set_in_handler+3,c
  5370  0017B4  0E00               	movlw	0
  5371  0017B6  6E03               	movwf	?_usb_set_in_handler+2,c
  5372  0017B8  ECCB  F010         	call	_usb_set_in_handler	;wreg free
  5373                           
  5374                           ;cdc.c: 96: usb_set_out_handler(2, (usb_handler_t) 0);
  5375  0017BC  0E00               	movlw	0
  5376  0017BE  6E02               	movwf	?_usb_set_out_handler+1,c
  5377  0017C0  0E02               	movlw	2
  5378  0017C2  6E01               	movwf	?_usb_set_out_handler,c
  5379  0017C4  0E00               	movlw	0
  5380  0017C6  6E04               	movwf	?_usb_set_out_handler+3,c
  5381  0017C8  0E00               	movlw	0
  5382  0017CA  6E03               	movwf	?_usb_set_out_handler+2,c
  5383  0017CC  EC99  F010         	call	_usb_set_out_handler	;wreg free
  5384                           
  5385                           ;cdc.c: 98: UEP1 = ((0x10) | (0x02) | (0x08));
  5386  0017D0  0E1A               	movlw	26
  5387  0017D2  6E71               	movwf	3953,c	;volatile
  5388                           
  5389                           ;cdc.c: 99: UEP2 = ((0x10) | (0x02) | (0x04) | (0x08));
  5390  0017D4  0E1E               	movlw	30
  5391  0017D6  6E72               	movwf	3954,c	;volatile
  5392                           
  5393                           ;cdc.c: 104: usb_bdt[( 2*(1)+(1) )].BDCNT = 0;
  5394  0017D8  6E07               	movwf	??_user_configured_init& (0+255),c
  5395  0017DA  0E00               	movlw	0
  5396  0017DC  0100               	movlb	0	; () banked
  5397  0017DE  0100               	movlb	0	; () banked
  5398  0017E0  6FAF               	movwf	(_usb_bdt+13)& (0+255),b
  5399  0017E2  5007               	movf	??_user_configured_init& (0+255),w,c
  5400                           
  5401                           ; BSR set to: 0
  5402                           ;cdc.c: 105: usb_bdt[( 2*(1)+(1) )].BDADDR = cdc_acm_in_buffer;
  5403  0017E4  0100               	movlb	0	; () banked
  5404  0017E6  0E00               	movlw	high _cdc_acm_in_buffer
  5405  0017E8  0100               	movlb	0	; () banked
  5406  0017EA  0100               	movlb	0	; () banked
  5407  0017EC  6FB1               	movwf	(_usb_bdt+15)& (0+255),b
  5408  0017EE  0100               	movlb	0	; () banked
  5409  0017F0  0EBA               	movlw	low _cdc_acm_in_buffer
  5410  0017F2  0100               	movlb	0	; () banked
  5411  0017F4  6FB0               	movwf	(_usb_bdt+14)& (0+255),b
  5412                           
  5413                           ; BSR set to: 0
  5414                           ;cdc.c: 106: usb_bdt[( 2*(1)+(1) )].BDSTAT = 0x40 + 0x08;
  5415  0017F6  6E07               	movwf	??_user_configured_init& (0+255),c
  5416  0017F8  0E48               	movlw	72
  5417  0017FA  0100               	movlb	0	; () banked
  5418  0017FC  0100               	movlb	0	; () banked
  5419  0017FE  6FAE               	movwf	(_usb_bdt+12)& (0+255),b
  5420  001800  5007               	movf	??_user_configured_init& (0+255),w,c
  5421                           
  5422                           ; BSR set to: 0
  5423                           ;cdc.c: 112: usb_register_class_setup_handler(cdc_setup);
  5424  001802  0E12               	movlw	high _cdc_setup
  5425  001804  6E02               	movwf	?_usb_register_class_setup_handler+1,c
  5426  001806  0E5A               	movlw	low _cdc_setup
  5427  001808  6E01               	movwf	?_usb_register_class_setup_handler,c
  5428  00180A  EC88  F011         	call	_usb_register_class_setup_handler	;wreg free
  5429                           
  5430                           ;cdc.c: 113: cdc_trf_state = 0;
  5431  00180E  0E00               	movlw	0
  5432  001810  6E55               	movwf	_cdc_trf_state,c	;volatile
  5433                           
  5434                           ;cdc.c: 114: CDC_Outbdp = &usb_bdt[( 2*(2)+(0) )];
  5435  001812  0100               	movlb	0	; () banked
  5436  001814  0E00               	movlw	high (_usb_bdt+16)
  5437  001816  6E35               	movwf	_CDC_Outbdp+1,c
  5438  001818  0100               	movlb	0	; () banked
  5439  00181A  0EB2               	movlw	low (_usb_bdt+16)
  5440  00181C  6E34               	movwf	_CDC_Outbdp,c
  5441                           
  5442                           ; BSR set to: 0
  5443                           ;cdc.c: 115: CDC_Inbdp = &usb_bdt[( 2*(2)+(1) )];
  5444  00181E  0100               	movlb	0	; () banked
  5445  001820  0E00               	movlw	high (_usb_bdt+20)
  5446  001822  6E33               	movwf	_CDC_Inbdp+1,c
  5447  001824  0100               	movlb	0	; () banked
  5448  001826  0EB6               	movlw	low (_usb_bdt+20)
  5449  001828  6E32               	movwf	_CDC_Inbdp,c
  5450                           
  5451                           ; BSR set to: 0
  5452                           ;cdc.c: 117: IsInBufferA = 0xFF;
  5453  00182A  684A               	setf	_IsInBufferA,c
  5454                           
  5455                           ; BSR set to: 0
  5456                           ;cdc.c: 118: InPtr = cdc_In_bufferA;
  5457  00182C  0101               	movlb	1	; () banked
  5458  00182E  0E01               	movlw	high _cdc_In_bufferA
  5459  001830  6E3B               	movwf	_InPtr+1,c
  5460  001832  0101               	movlb	1	; () banked
  5461  001834  0E00               	movlw	low _cdc_In_bufferA
  5462  001836  6E3A               	movwf	_InPtr,c
  5463                           
  5464                           ; BSR set to: 1
  5465                           ;cdc.c: 119: cdc_In_len = 0;
  5466  001838  6E07               	movwf	??_user_configured_init& (0+255),c
  5467  00183A  0E00               	movlw	0
  5468  00183C  6E52               	movwf	_cdc_In_len,c
  5469  00183E  5007               	movf	??_user_configured_init& (0+255),w,c
  5470                           
  5471                           ; BSR set to: 1
  5472                           ;cdc.c: 120: CDC_Inbdp->BDADDR = &cdc_In_bufferA[0];
  5473  001840  EE20 F002          	lfsr	2,2
  5474  001844  5032               	movf	_CDC_Inbdp,w,c
  5475  001846  26D9               	addwf	fsr2l,f,c
  5476  001848  5033               	movf	_CDC_Inbdp+1,w,c
  5477  00184A  22DA               	addwfc	fsr2h,f,c
  5478  00184C  0101               	movlb	1	; () banked
  5479  00184E  0E00               	movlw	low _cdc_In_bufferA
  5480  001850  6EDE               	movwf	postinc2,c
  5481  001852  0101               	movlb	1	; () banked
  5482  001854  0E01               	movlw	high _cdc_In_bufferA
  5483  001856  6EDD               	movwf	postdec2,c
  5484                           
  5485                           ; BSR set to: 1
  5486                           ;cdc.c: 121: CDC_Inbdp->BDCNT = 0;
  5487  001858  EE20 F001          	lfsr	2,1
  5488  00185C  5032               	movf	_CDC_Inbdp,w,c
  5489  00185E  26D9               	addwf	fsr2l,f,c
  5490  001860  5033               	movf	_CDC_Inbdp+1,w,c
  5491  001862  22DA               	addwfc	fsr2h,f,c
  5492  001864  0E00               	movlw	0
  5493  001866  6EDF               	movwf	indf2,c
  5494                           
  5495                           ; BSR set to: 1
  5496                           ;cdc.c: 122: CDC_Inbdp->BDSTAT = 0x40 + 0x08;
  5497  001868  C032  FFD9         	movff	_CDC_Inbdp,fsr2l
  5498  00186C  C033  FFDA         	movff	_CDC_Inbdp+1,fsr2h
  5499  001870  0E48               	movlw	72
  5500  001872  6EDF               	movwf	indf2,c
  5501                           
  5502                           ; BSR set to: 1
  5503                           ;cdc.c: 124: cdc_Out_len = 0;
  5504  001874  0E00               	movlw	0
  5505  001876  6E53               	movwf	_cdc_Out_len,c	;volatile
  5506                           
  5507                           ; BSR set to: 1
  5508                           ;cdc.c: 125: IsOutBufferA = 0xFF;
  5509  001878  684B               	setf	_IsOutBufferA,c
  5510                           
  5511                           ; BSR set to: 1
  5512                           ;cdc.c: 126: OutPtr = cdc_Out_bufferA;
  5513  00187A  0101               	movlb	1	; () banked
  5514  00187C  0E01               	movlw	high _cdc_Out_bufferA
  5515  00187E  6E3D               	movwf	_OutPtr+1,c
  5516  001880  0101               	movlb	1	; () banked
  5517  001882  0E80               	movlw	low _cdc_Out_bufferA
  5518  001884  6E3C               	movwf	_OutPtr,c
  5519                           
  5520                           ; BSR set to: 1
  5521                           ;cdc.c: 127: CDC_Outbdp->BDCNT = 64u;
  5522  001886  EE20 F001          	lfsr	2,1
  5523  00188A  5034               	movf	_CDC_Outbdp,w,c
  5524  00188C  26D9               	addwf	fsr2l,f,c
  5525  00188E  5035               	movf	_CDC_Outbdp+1,w,c
  5526  001890  22DA               	addwfc	fsr2h,f,c
  5527  001892  0E40               	movlw	64
  5528  001894  6EDF               	movwf	indf2,c
  5529                           
  5530                           ; BSR set to: 1
  5531                           ;cdc.c: 128: CDC_Outbdp->BDADDR = &cdc_Out_bufferA[0];
  5532  001896  EE20 F002          	lfsr	2,2
  5533  00189A  5034               	movf	_CDC_Outbdp,w,c
  5534  00189C  26D9               	addwf	fsr2l,f,c
  5535  00189E  5035               	movf	_CDC_Outbdp+1,w,c
  5536  0018A0  22DA               	addwfc	fsr2h,f,c
  5537  0018A2  0101               	movlb	1	; () banked
  5538  0018A4  0E80               	movlw	low _cdc_Out_bufferA
  5539  0018A6  6EDE               	movwf	postinc2,c
  5540  0018A8  0101               	movlb	1	; () banked
  5541  0018AA  0E01               	movlw	high _cdc_Out_bufferA
  5542  0018AC  6EDD               	movwf	postdec2,c
  5543                           
  5544                           ; BSR set to: 1
  5545                           ;cdc.c: 129: CDC_Outbdp->BDSTAT = 0x80 + 0x08;
  5546  0018AE  C034  FFD9         	movff	_CDC_Outbdp,fsr2l
  5547  0018B2  C035  FFDA         	movff	_CDC_Outbdp+1,fsr2h
  5548  0018B6  0E88               	movlw	136
  5549  0018B8  6EDF               	movwf	indf2,c
  5550                           
  5551                           ; BSR set to: 1
  5552  0018BA  0012               	return	
  5553  0018BC                     __end_of_user_configured_init:
  5554                           	opt stack 0
  5555                           tosu	equ	0xFFF
  5556                           tosh	equ	0xFFE
  5557                           tosl	equ	0xFFD
  5558                           pclath	equ	0xFFA
  5559                           tblptru	equ	0xFF8
  5560                           tblptrh	equ	0xFF7
  5561                           tblptrl	equ	0xFF6
  5562                           tablat	equ	0xFF5
  5563                           prodh	equ	0xFF4
  5564                           prodl	equ	0xFF3
  5565                           postinc0	equ	0xFEE
  5566                           wreg	equ	0xFE8
  5567                           indf1	equ	0xFE7
  5568                           postdec1	equ	0xFE5
  5569                           fsr1h	equ	0xFE2
  5570                           fsr1l	equ	0xFE1
  5571                           indf2	equ	0xFDF
  5572                           postinc2	equ	0xFDE
  5573                           postdec2	equ	0xFDD
  5574                           plusw2	equ	0xFDB
  5575                           fsr2h	equ	0xFDA
  5576                           fsr2l	equ	0xFD9
  5577                           status	equ	0xFD8
  5578                           
  5579 ;; *************** function _cdc_setup *****************
  5580 ;; Defined at:
  5581 ;;		line 132 in file "../dp_usb/cdc.c"
  5582 ;; Parameters:    Size  Location     Type
  5583 ;;		None
  5584 ;; Auto vars:     Size  Location     Type
  5585 ;;  packet          2   14[COMRAM] PTR unsigned char 
  5586 ;;		 -> usb_ep0_in_buf(8), usb_ep0_out_buf(8), cdc_In_bufferB(64), cdc_Out_bufferB(64), 
  5587 ;;		 -> cdc_Out_bufferA(64), cdc_In_bufferA(64), cdc_acm_in_buffer(10), 
  5588 ;;  reply_len       2   12[COMRAM] unsigned int 
  5589 ;; Return value:  Size  Location     Type
  5590 ;;		None               void
  5591 ;; Registers used:
  5592 ;;		wreg, fsr1l, fsr1h, fsr2l, fsr2h, status,2, status,0, cstack
  5593 ;; Tracked objects:
  5594 ;;		On entry : 0/0
  5595 ;;		On exit  : 0/0
  5596 ;;		Unchanged: 0/0
  5597 ;; Data sizes:     COMRAM   BANK0   BANK1   BANK2   BANK3   BANK4   BANK5   BANK6   BANK7
  5598 ;;      Params:         0       0       0       0       0       0       0       0       0
  5599 ;;      Locals:         4       0       0       0       0       0       0       0       0
  5600 ;;      Temps:          2       0       0       0       0       0       0       0       0
  5601 ;;      Totals:         6       0       0       0       0       0       0       0       0
  5602 ;;Total ram usage:        6 bytes
  5603 ;; Hardware stack levels used:    1
  5604 ;; Hardware stack levels required when called:    1
  5605 ;; This function calls:
  5606 ;;		_usb_set_in_handler
  5607 ;;		_usb_set_out_handler
  5608 ;;		_usb_ack_dat1
  5609 ;;		_usb_RequestError
  5610 ;;		_memcpy
  5611 ;; This function is called by:
  5612 ;;		_initCDC
  5613 ;;		_user_configured_init
  5614 ;;		_usb_handle_setup
  5615 ;; This function uses a non-reentrant model
  5616 ;;
  5617                           
  5618                           	psect	text28
  5619  00125A                     __ptext28:
  5620                           	opt stack 0
  5621  00125A                     _cdc_setup:
  5622                           	opt stack 23
  5623                           
  5624                           ;cdc.c: 133: BYTE *packet;
  5625                           ;cdc.c: 134: size_t reply_len;
  5626                           ;cdc.c: 135: packet = EP0_Outbdp->BDADDR;
  5627                           
  5628                           ; BSR set to: 1
  5629                           ;incstack = 0
  5630                           ;incstack = 0
  5631  00125A  EE20 F002          	lfsr	2,2
  5632  00125E  5038               	movf	_EP0_Outbdp,w,c
  5633  001260  26D9               	addwf	fsr2l,f,c
  5634  001262  5039               	movf	_EP0_Outbdp+1,w,c
  5635  001264  22DA               	addwfc	fsr2h,f,c
  5636  001266  CFDE F00F          	movff	postinc2,cdc_setup@packet
  5637  00126A  CFDD F010          	movff	postdec2,cdc_setup@packet+1
  5638                           
  5639                           ;cdc.c: 137: switch (packet[0] & (0b01100000 | 0b00000011)) {
  5640  00126E  D09F               	goto	l2549
  5641  001270                     l2515:
  5642                           
  5643                           ;cdc.c: 143: usb_ack_dat1(0);
  5644  001270  0E00               	movlw	0
  5645  001272  6E02               	movwf	?_usb_ack_dat1+1,c
  5646  001274  0E00               	movlw	0
  5647  001276  6E01               	movwf	?_usb_ack_dat1,c
  5648  001278  EC1A  F011         	call	_usb_ack_dat1	;wreg free
  5649                           
  5650                           ;cdc.c: 144: break;
  5651  00127C  D0A9               	goto	l108
  5652  00127E                     l2517:
  5653                           
  5654                           ;cdc.c: 149: usb_ack_dat1(0);
  5655  00127E  0E00               	movlw	0
  5656  001280  6E02               	movwf	?_usb_ack_dat1+1,c
  5657  001282  0E00               	movlw	0
  5658  001284  6E01               	movwf	?_usb_ack_dat1,c
  5659  001286  EC1A  F011         	call	_usb_ack_dat1	;wreg free
  5660                           
  5661                           ;cdc.c: 150: break;
  5662  00128A  D0A2               	goto	l108
  5663  00128C                     l2519:
  5664                           
  5665                           ;cdc.c: 153: case 0x03:
  5666                           ;cdc.c: 154: case 0x04:
  5667                           ;cdc.c: 155: usb_RequestError();
  5668  00128C  ECF6  F010         	call	_usb_RequestError	;wreg free
  5669                           
  5670                           ;cdc.c: 156: break;
  5671  001290  D09F               	goto	l108
  5672  001292                     l2521:
  5673                           
  5674                           ;cdc.c: 159: usb_set_out_handler(0, cdc_set_line_coding_data);
  5675  001292  0E00               	movlw	0
  5676  001294  6E02               	movwf	?_usb_set_out_handler+1,c
  5677  001296  0E00               	movlw	0
  5678  001298  6E01               	movwf	?_usb_set_out_handler,c
  5679  00129A  0E15               	movlw	high _cdc_set_line_coding_data
  5680  00129C  6E04               	movwf	?_usb_set_out_handler+3,c
  5681  00129E  0E3E               	movlw	low _cdc_set_line_coding_data
  5682  0012A0  6E03               	movwf	?_usb_set_out_handler+2,c
  5683  0012A2  EC99  F010         	call	_usb_set_out_handler	;wreg free
  5684                           
  5685                           ;cdc.c: 160: break;
  5686  0012A6  D094               	goto	l108
  5687  0012A8                     l2523:
  5688                           
  5689                           ;cdc.c: 165: reply_len = *((unsigned int *) &packet[6]);
  5690  0012A8  EE20 F006          	lfsr	2,6
  5691  0012AC  500F               	movf	cdc_setup@packet,w,c
  5692  0012AE  26D9               	addwf	fsr2l,f,c
  5693  0012B0  5010               	movf	cdc_setup@packet+1,w,c
  5694  0012B2  22DA               	addwfc	fsr2h,f,c
  5695  0012B4  CFDE F00D          	movff	postinc2,cdc_setup@reply_len
  5696  0012B8  CFDD F00E          	movff	postdec2,cdc_setup@reply_len+1
  5697                           
  5698                           ;cdc.c: 166: if (sizeof (struct cdc_LineCodeing) < reply_len) {
  5699  0012BC  0E08               	movlw	8
  5700  0012BE  5C0D               	subwf	cdc_setup@reply_len,w,c
  5701  0012C0  0E00               	movlw	0
  5702  0012C2  580E               	subwfb	cdc_setup@reply_len+1,w,c
  5703  0012C4  A0D8               	btfss	status,0,c
  5704  0012C6  D004               	goto	l2529
  5705                           
  5706                           ;cdc.c: 167: reply_len = sizeof (struct cdc_LineCodeing);
  5707  0012C8  0E00               	movlw	0
  5708  0012CA  6E0E               	movwf	cdc_setup@reply_len+1,c
  5709  0012CC  0E07               	movlw	7
  5710  0012CE  6E0D               	movwf	cdc_setup@reply_len,c
  5711  0012D0                     l2529:
  5712                           
  5713                           ;cdc.c: 168: }
  5714                           ;cdc.c: 169: memcpy(EP0_Inbdp->BDADDR, (const void *) &linecodeing, reply_len);
  5715  0012D0  EE20 F002          	lfsr	2,2
  5716  0012D4  5036               	movf	_EP0_Inbdp,w,c
  5717  0012D6  26D9               	addwf	fsr2l,f,c
  5718  0012D8  5037               	movf	_EP0_Inbdp+1,w,c
  5719  0012DA  22DA               	addwfc	fsr2h,f,c
  5720  0012DC  CFDE F001          	movff	postinc2,?_memcpy
  5721  0012E0  CFDD F002          	movff	postdec2,?_memcpy+1
  5722  0012E4  0100               	movlb	0	; () banked
  5723  0012E6  0E00               	movlw	high _linecodeing
  5724  0012E8  6E04               	movwf	?_memcpy+3,c
  5725  0012EA  0100               	movlb	0	; () banked
  5726  0012EC  0EDE               	movlw	low _linecodeing
  5727  0012EE  6E03               	movwf	?_memcpy+2,c
  5728  0012F0  C00D  F005         	movff	cdc_setup@reply_len,?_memcpy+4
  5729  0012F4  C00E  F006         	movff	cdc_setup@reply_len+1,?_memcpy+5
  5730  0012F8  EC42  F010         	call	_memcpy	;wreg free
  5731                           
  5732                           ;cdc.c: 170: usb_ack_dat1(reply_len);
  5733  0012FC  C00D  F001         	movff	cdc_setup@reply_len,?_usb_ack_dat1
  5734  001300  C00E  F002         	movff	cdc_setup@reply_len+1,?_usb_ack_dat1+1
  5735  001304  EC1A  F011         	call	_usb_ack_dat1	;wreg free
  5736                           
  5737                           ;cdc.c: 171: usb_set_in_handler(0, cdc_get_line_coding);
  5738  001308  0E00               	movlw	0
  5739  00130A  6E02               	movwf	?_usb_set_in_handler+1,c
  5740  00130C  0E00               	movlw	0
  5741  00130E  6E01               	movwf	?_usb_set_in_handler,c
  5742  001310  0E22               	movlw	high _cdc_get_line_coding
  5743  001312  6E04               	movwf	?_usb_set_in_handler+3,c
  5744  001314  0EC4               	movlw	low _cdc_get_line_coding
  5745  001316  6E03               	movwf	?_usb_set_in_handler+2,c
  5746  001318  ECCB  F010         	call	_usb_set_in_handler	;wreg free
  5747                           
  5748                           ;cdc.c: 172: break;
  5749  00131C  D059               	goto	l108
  5750  00131E                     l2535:
  5751                           
  5752                           ;cdc.c: 175: cls = *((struct _cdc_ControlLineState *) &packet[2]);
  5753  00131E  EE20 F002          	lfsr	2,2
  5754  001322  500F               	movf	cdc_setup@packet,w,c
  5755  001324  26D9               	addwf	fsr2l,f,c
  5756  001326  5010               	movf	cdc_setup@packet+1,w,c
  5757  001328  22DA               	addwfc	fsr2h,f,c
  5758  00132A  0100               	movlb	0	; () banked
  5759  00132C  CFDE F0A0          	movff	postinc2,_cls
  5760  001330  0100               	movlb	0	; () banked
  5761  001332  CFDD F0A1          	movff	postdec2,_cls+1
  5762                           
  5763                           ; BSR set to: 0
  5764                           ;cdc.c: 176: usb_set_in_handler(0, cdc_set_control_line_state_status);
  5765  001336  0E00               	movlw	0
  5766  001338  6E02               	movwf	?_usb_set_in_handler+1,c
  5767  00133A  0E00               	movlw	0
  5768  00133C  6E01               	movwf	?_usb_set_in_handler,c
  5769  00133E  0E22               	movlw	high _cdc_set_control_line_state_status
  5770  001340  6E04               	movwf	?_usb_set_in_handler+3,c
  5771  001342  0EAE               	movlw	low _cdc_set_control_line_state_status
  5772  001344  6E03               	movwf	?_usb_set_in_handler+2,c
  5773  001346  ECCB  F010         	call	_usb_set_in_handler	;wreg free
  5774                           
  5775                           ;cdc.c: 177: usb_ack_dat1(0);
  5776  00134A  0E00               	movlw	0
  5777  00134C  6E02               	movwf	?_usb_ack_dat1+1,c
  5778  00134E  0E00               	movlw	0
  5779  001350  6E01               	movwf	?_usb_ack_dat1,c
  5780  001352  EC1A  F011         	call	_usb_ack_dat1	;wreg free
  5781                           
  5782                           ;cdc.c: 178: LineStateUpdated = 1;
  5783  001356  6E0B               	movwf	??_cdc_setup& (0+255),c
  5784  001358  0E01               	movlw	1
  5785  00135A  6E4D               	movwf	_LineStateUpdated,c
  5786  00135C  500B               	movf	??_cdc_setup& (0+255),w,c
  5787                           
  5788                           ;cdc.c: 179: break;
  5789  00135E  D038               	goto	l108
  5790  001360                     l2543:
  5791                           
  5792                           ;cdc.c: 183: usb_RequestError();
  5793  001360  ECF6  F010         	call	_usb_RequestError	;wreg free
  5794                           
  5795                           ;cdc.c: 184: }
  5796  001364  D035               	goto	l108
  5797  001366                     l2545:
  5798  001366  EE20 F001          	lfsr	2,1
  5799  00136A  500F               	movf	cdc_setup@packet,w,c
  5800  00136C  26D9               	addwf	fsr2l,f,c
  5801  00136E  5010               	movf	cdc_setup@packet+1,w,c
  5802  001370  22DA               	addwfc	fsr2h,f,c
  5803  001372  50DF               	movf	indf2,w,c
  5804                           
  5805                           ; Switch size 1, requested type "space"
  5806                           ; Number of cases is 9, Range of values is 0 to 35
  5807                           ; switch strategies available:
  5808                           ; Name         Instructions Cycles
  5809                           ; simple_byte           28    15 (average)
  5810                           ;	Chosen strategy is simple_byte
  5811  001374  0A00               	xorlw	0	; case 0
  5812  001376  B4D8               	btfsc	status,2,c
  5813  001378  D77B               	goto	l2515
  5814  00137A  0A01               	xorlw	1	; case 1
  5815  00137C  B4D8               	btfsc	status,2,c
  5816  00137E  D77F               	goto	l2517
  5817  001380  0A03               	xorlw	3	; case 2
  5818  001382  B4D8               	btfsc	status,2,c
  5819  001384  D783               	goto	l2519
  5820  001386  0A01               	xorlw	1	; case 3
  5821  001388  B4D8               	btfsc	status,2,c
  5822  00138A  D780               	goto	l2519
  5823  00138C  0A07               	xorlw	7	; case 4
  5824  00138E  B4D8               	btfsc	status,2,c
  5825  001390  D77D               	goto	l2519
  5826  001392  0A24               	xorlw	36	; case 32
  5827  001394  B4D8               	btfsc	status,2,c
  5828  001396  D77D               	goto	l2521
  5829  001398  0A01               	xorlw	1	; case 33
  5830  00139A  B4D8               	btfsc	status,2,c
  5831  00139C  D785               	goto	l2523
  5832  00139E  0A03               	xorlw	3	; case 34
  5833  0013A0  B4D8               	btfsc	status,2,c
  5834  0013A2  D7BD               	goto	l2535
  5835  0013A4  0A01               	xorlw	1	; case 35
  5836  0013A6  D7DC               	goto	l2543
  5837  0013A8                     l2547:
  5838                           
  5839                           ;cdc.c: 187: usb_RequestError();
  5840  0013A8  ECF6  F010         	call	_usb_RequestError	;wreg free
  5841                           
  5842                           ;cdc.c: 188: }
  5843  0013AC  D011               	goto	l108
  5844  0013AE                     l2549:
  5845  0013AE  C00F  FFD9         	movff	cdc_setup@packet,fsr2l
  5846  0013B2  C010  FFDA         	movff	cdc_setup@packet+1,fsr2h
  5847  0013B6  50DF               	movf	indf2,w,c
  5848  0013B8  0B63               	andlw	99
  5849  0013BA  6E0B               	movwf	??_cdc_setup& (0+255),c
  5850  0013BC  6A0C               	clrf	(??_cdc_setup+1)& (0+255),c
  5851                           
  5852                           ; Switch on 2 bytes has been partitioned into a top level switch of size 1, and 1 sub-sw
      +                          itches
  5853                           ; Switch size 1, requested type "space"
  5854                           ; Number of cases is 1, Range of values is 0 to 0
  5855                           ; switch strategies available:
  5856                           ; Name         Instructions Cycles
  5857                           ; simple_byte            4     3 (average)
  5858                           ;	Chosen strategy is simple_byte
  5859  0013BE  500C               	movf	??_cdc_setup+1,w,c
  5860  0013C0  0A00               	xorlw	0	; case 0
  5861  0013C2  A4D8               	btfss	status,2,c
  5862  0013C4  D7F1               	goto	l2547
  5863                           
  5864                           ; Switch size 1, requested type "space"
  5865                           ; Number of cases is 1, Range of values is 33 to 33
  5866                           ; switch strategies available:
  5867                           ; Name         Instructions Cycles
  5868                           ; simple_byte            4     3 (average)
  5869                           ;	Chosen strategy is simple_byte
  5870  0013C6  500B               	movf	??_cdc_setup,w,c
  5871  0013C8  0A21               	xorlw	33	; case 33
  5872  0013CA  B4D8               	btfsc	status,2,c
  5873  0013CC  D7CC               	goto	l2545
  5874  0013CE  D7EC               	goto	l2547
  5875  0013D0                     l108:
  5876  0013D0  0012               	return	
  5877  0013D2                     __end_of_cdc_setup:
  5878                           	opt stack 0
  5879                           tosu	equ	0xFFF
  5880                           tosh	equ	0xFFE
  5881                           tosl	equ	0xFFD
  5882                           pclath	equ	0xFFA
  5883                           tblptru	equ	0xFF8
  5884                           tblptrh	equ	0xFF7
  5885                           tblptrl	equ	0xFF6
  5886                           tablat	equ	0xFF5
  5887                           prodh	equ	0xFF4
  5888                           prodl	equ	0xFF3
  5889                           postinc0	equ	0xFEE
  5890                           wreg	equ	0xFE8
  5891                           indf1	equ	0xFE7
  5892                           postdec1	equ	0xFE5
  5893                           fsr1h	equ	0xFE2
  5894                           fsr1l	equ	0xFE1
  5895                           indf2	equ	0xFDF
  5896                           postinc2	equ	0xFDE
  5897                           postdec2	equ	0xFDD
  5898                           plusw2	equ	0xFDB
  5899                           fsr2h	equ	0xFDA
  5900                           fsr2l	equ	0xFD9
  5901                           status	equ	0xFD8
  5902                           
  5903 ;; *************** function _memcpy *****************
  5904 ;; Defined at:
  5905 ;;		line 13 in file "C:\Program Files (x86)\Microchip\xc8\v1.21\sources\common\memcpy.c"
  5906 ;; Parameters:    Size  Location     Type
  5907 ;;  d1              2    0[COMRAM] PTR void 
  5908 ;;		 -> usb_ep0_in_buf(8), usb_ep0_out_buf(8), cdc_In_bufferB(64), cdc_Out_bufferB(64), 
  5909 ;;		 -> cdc_Out_bufferA(64), cdc_In_bufferA(64), cdc_acm_in_buffer(10), linecodeing(7), 
  5910 ;;  s1              2    2[COMRAM] PTR const void 
  5911 ;;		 -> usb_ep0_in_buf(8), usb_ep0_out_buf(8), cdc_In_bufferB(64), cdc_Out_bufferB(64), 
  5912 ;;		 -> cdc_Out_bufferA(64), cdc_In_bufferA(64), cdc_acm_in_buffer(10), linecodeing(7), 
  5913 ;;  n               2    4[COMRAM] unsigned int 
  5914 ;; Auto vars:     Size  Location     Type
  5915 ;;  s               2    8[COMRAM] PTR const unsigned char 
  5916 ;;		 -> usb_ep0_in_buf(8), usb_ep0_out_buf(8), cdc_In_bufferB(64), cdc_Out_bufferB(64), 
  5917 ;;		 -> cdc_Out_bufferA(64), cdc_In_bufferA(64), cdc_acm_in_buffer(10), linecodeing(7), 
  5918 ;;  d               2    6[COMRAM] PTR unsigned char 
  5919 ;;		 -> usb_ep0_in_buf(8), usb_ep0_out_buf(8), cdc_In_bufferB(64), cdc_Out_bufferB(64), 
  5920 ;;		 -> cdc_Out_bufferA(64), cdc_In_bufferA(64), cdc_acm_in_buffer(10), linecodeing(7), 
  5921 ;; Return value:  Size  Location     Type
  5922 ;;                  2    0[COMRAM] PTR void 
  5923 ;; Registers used:
  5924 ;;		wreg, fsr1l, fsr1h, fsr2l, fsr2h, status,2, status,0
  5925 ;; Tracked objects:
  5926 ;;		On entry : 0/0
  5927 ;;		On exit  : 0/0
  5928 ;;		Unchanged: 0/0
  5929 ;; Data sizes:     COMRAM   BANK0   BANK1   BANK2   BANK3   BANK4   BANK5   BANK6   BANK7
  5930 ;;      Params:         6       0       0       0       0       0       0       0       0
  5931 ;;      Locals:         4       0       0       0       0       0       0       0       0
  5932 ;;      Temps:          0       0       0       0       0       0       0       0       0
  5933 ;;      Totals:        10       0       0       0       0       0       0       0       0
  5934 ;;Total ram usage:       10 bytes
  5935 ;; Hardware stack levels used:    1
  5936 ;; This function calls:
  5937 ;;		Nothing
  5938 ;; This function is called by:
  5939 ;;		_cdc_setup
  5940 ;;		_cdc_set_line_coding_data
  5941 ;; This function uses a non-reentrant model
  5942 ;;
  5943                           
  5944                           	psect	text29
  5945  002084                     __ptext29:
  5946                           	opt stack 0
  5947  002084                     _memcpy:
  5948                           	opt stack 23
  5949                           
  5950                           ;incstack = 0
  5951                           ;incstack = 0
  5952  002084  C003  F009         	movff	memcpy@s1,memcpy@s
  5953  002088  C004  F00A         	movff	memcpy@s1+1,memcpy@s+1
  5954  00208C  C001  F007         	movff	memcpy@d1,memcpy@d
  5955  002090  C002  F008         	movff	memcpy@d1+1,memcpy@d+1
  5956  002094  D00E               	goto	l2255
  5957  002096                     l2249:
  5958  002096  C009  FFD9         	movff	memcpy@s,fsr2l
  5959  00209A  C00A  FFDA         	movff	memcpy@s+1,fsr2h
  5960  00209E  C007  FFE1         	movff	memcpy@d,fsr1l
  5961  0020A2  C008  FFE2         	movff	memcpy@d+1,fsr1h
  5962  0020A6  CFDF FFE7          	movff	indf2,indf1
  5963  0020AA  4A09               	infsnz	memcpy@s,f,c
  5964  0020AC  2A0A               	incf	memcpy@s+1,f,c
  5965  0020AE  4A07               	infsnz	memcpy@d,f,c
  5966  0020B0  2A08               	incf	memcpy@d+1,f,c
  5967  0020B2                     l2255:
  5968  0020B2  0605               	decf	memcpy@n,f,c
  5969  0020B4  A0D8               	btfss	status,0,c
  5970  0020B6  0606               	decf	memcpy@n+1,f,c
  5971  0020B8  2805               	incf	memcpy@n& (0+255),w,c
  5972  0020BA  B4D8               	btfsc	status,2,c
  5973  0020BC  2806               	incf	(memcpy@n+1)& (0+255),w,c
  5974  0020BE  B4D8               	btfsc	status,2,c
  5975                           
  5976                           ;	Return value of _memcpy is never used
  5977  0020C0  0012               	return	
  5978  0020C2  D7E9               	goto	l2249
  5979  0020C4                     __end_of_memcpy:
  5980                           	opt stack 0
  5981                           tosu	equ	0xFFF
  5982                           tosh	equ	0xFFE
  5983                           tosl	equ	0xFFD
  5984                           pclath	equ	0xFFA
  5985                           tblptru	equ	0xFF8
  5986                           tblptrh	equ	0xFF7
  5987                           tblptrl	equ	0xFF6
  5988                           tablat	equ	0xFF5
  5989                           prodh	equ	0xFF4
  5990                           prodl	equ	0xFF3
  5991                           postinc0	equ	0xFEE
  5992                           wreg	equ	0xFE8
  5993                           indf1	equ	0xFE7
  5994                           postdec1	equ	0xFE5
  5995                           fsr1h	equ	0xFE2
  5996                           fsr1l	equ	0xFE1
  5997                           indf2	equ	0xFDF
  5998                           postinc2	equ	0xFDE
  5999                           postdec2	equ	0xFDD
  6000                           plusw2	equ	0xFDB
  6001                           fsr2h	equ	0xFDA
  6002                           fsr2l	equ	0xFD9
  6003                           status	equ	0xFD8
  6004                           
  6005 ;; *************** function _usb_RequestError *****************
  6006 ;; Defined at:
  6007 ;;		line 552 in file "../dp_usb/usb_stack.c"
  6008 ;; Parameters:    Size  Location     Type
  6009 ;;		None
  6010 ;; Auto vars:     Size  Location     Type
  6011 ;;		None
  6012 ;; Return value:  Size  Location     Type
  6013 ;;		None               void
  6014 ;; Registers used:
  6015 ;;		status,2
  6016 ;; Tracked objects:
  6017 ;;		On entry : 0/0
  6018 ;;		On exit  : 0/0
  6019 ;;		Unchanged: 0/0
  6020 ;; Data sizes:     COMRAM   BANK0   BANK1   BANK2   BANK3   BANK4   BANK5   BANK6   BANK7
  6021 ;;      Params:         0       0       0       0       0       0       0       0       0
  6022 ;;      Locals:         0       0       0       0       0       0       0       0       0
  6023 ;;      Temps:          1       0       0       0       0       0       0       0       0
  6024 ;;      Totals:         1       0       0       0       0       0       0       0       0
  6025 ;;Total ram usage:        1 bytes
  6026 ;; Hardware stack levels used:    1
  6027 ;; This function calls:
  6028 ;;		Nothing
  6029 ;; This function is called by:
  6030 ;;		_cdc_setup
  6031 ;;		_usb_handle_setup
  6032 ;;		_usb_handle_StandardDeviceRequest
  6033 ;;		_usb_handle_StandardInterfaceRequest
  6034 ;;		_usb_handle_StandardEndpointRequest
  6035 ;; This function uses a non-reentrant model
  6036 ;;
  6037                           
  6038                           	psect	text30
  6039  0021EC                     __ptext30:
  6040                           	opt stack 0
  6041  0021EC                     _usb_RequestError:
  6042                           	opt stack 23
  6043                           
  6044                           ;usb_stack.c: 554: usb_bdt[( 2*(0)+(0) )].BDCNT = 8u;
  6045                           
  6046                           ;incstack = 0
  6047                           ;incstack = 0
  6048  0021EC  6E01               	movwf	??_usb_RequestError& (0+255),c
  6049  0021EE  0E08               	movlw	8
  6050  0021F0  0100               	movlb	0	; () banked
  6051  0021F2  0100               	movlb	0	; () banked
  6052  0021F4  6FA3               	movwf	(_usb_bdt+1)& (0+255),b
  6053  0021F6  5001               	movf	??_usb_RequestError& (0+255),w,c
  6054                           
  6055                           ;usb_stack.c: 557: usb_bdt[( 2*(0)+(1) )].BDSTAT = 0x80 + 0x04;
  6056  0021F8  6E01               	movwf	??_usb_RequestError& (0+255),c
  6057  0021FA  0E84               	movlw	132
  6058  0021FC  0100               	movlb	0	; () banked
  6059  0021FE  0100               	movlb	0	; () banked
  6060  002200  6FA6               	movwf	(_usb_bdt+4)& (0+255),b
  6061  002202  5001               	movf	??_usb_RequestError& (0+255),w,c
  6062                           
  6063                           ;usb_stack.c: 558: usb_bdt[( 2*(0)+(0) )].BDSTAT = 0x80 + 0x04;
  6064  002204  6E01               	movwf	??_usb_RequestError& (0+255),c
  6065  002206  0E84               	movlw	132
  6066  002208  0100               	movlb	0	; () banked
  6067  00220A  0100               	movlb	0	; () banked
  6068  00220C  6FA2               	movwf	_usb_bdt& (0+255),b
  6069  00220E  5001               	movf	??_usb_RequestError& (0+255),w,c
  6070                           
  6071                           ; BSR set to: 0
  6072  002210  0012               	return	
  6073  002212                     __end_of_usb_RequestError:
  6074                           	opt stack 0
  6075                           tosu	equ	0xFFF
  6076                           tosh	equ	0xFFE
  6077                           tosl	equ	0xFFD
  6078                           pclath	equ	0xFFA
  6079                           tblptru	equ	0xFF8
  6080                           tblptrh	equ	0xFF7
  6081                           tblptrl	equ	0xFF6
  6082                           tablat	equ	0xFF5
  6083                           prodh	equ	0xFF4
  6084                           prodl	equ	0xFF3
  6085                           postinc0	equ	0xFEE
  6086                           wreg	equ	0xFE8
  6087                           indf1	equ	0xFE7
  6088                           postdec1	equ	0xFE5
  6089                           fsr1h	equ	0xFE2
  6090                           fsr1l	equ	0xFE1
  6091                           indf2	equ	0xFDF
  6092                           postinc2	equ	0xFDE
  6093                           postdec2	equ	0xFDD
  6094                           plusw2	equ	0xFDB
  6095                           fsr2h	equ	0xFDA
  6096                           fsr2l	equ	0xFD9
  6097                           status	equ	0xFD8
  6098                           
  6099 ;; *************** function _usb_ack_dat1 *****************
  6100 ;; Defined at:
  6101 ;;		line 547 in file "../dp_usb/usb_stack.c"
  6102 ;; Parameters:    Size  Location     Type
  6103 ;;  bdcnt           2    0[COMRAM] int 
  6104 ;; Auto vars:     Size  Location     Type
  6105 ;;		None
  6106 ;; Return value:  Size  Location     Type
  6107 ;;		None               void
  6108 ;; Registers used:
  6109 ;;		wreg, fsr2l, fsr2h, status,2, status,0
  6110 ;; Tracked objects:
  6111 ;;		On entry : 0/0
  6112 ;;		On exit  : 0/0
  6113 ;;		Unchanged: 0/0
  6114 ;; Data sizes:     COMRAM   BANK0   BANK1   BANK2   BANK3   BANK4   BANK5   BANK6   BANK7
  6115 ;;      Params:         2       0       0       0       0       0       0       0       0
  6116 ;;      Locals:         0       0       0       0       0       0       0       0       0
  6117 ;;      Temps:          0       0       0       0       0       0       0       0       0
  6118 ;;      Totals:         2       0       0       0       0       0       0       0       0
  6119 ;;Total ram usage:        2 bytes
  6120 ;; Hardware stack levels used:    1
  6121 ;; This function calls:
  6122 ;;		Nothing
  6123 ;; This function is called by:
  6124 ;;		_cdc_setup
  6125 ;;		_cdc_set_line_coding_data
  6126 ;;		_usb_handle_StandardDeviceRequest
  6127 ;;		_usb_handle_StandardInterfaceRequest
  6128 ;;		_usb_handle_StandardEndpointRequest
  6129 ;; This function uses a non-reentrant model
  6130 ;;
  6131                           
  6132                           	psect	text31
  6133  002234                     __ptext31:
  6134                           	opt stack 0
  6135  002234                     _usb_ack_dat1:
  6136                           	opt stack 23
  6137                           
  6138                           ;usb_stack.c: 548: EP0_Inbdp->BDCNT = (bdcnt & 0xFF);
  6139                           
  6140                           ; BSR set to: 0
  6141                           ;incstack = 0
  6142                           ;incstack = 0
  6143  002234  EE20 F001          	lfsr	2,1
  6144  002238  5036               	movf	_EP0_Inbdp,w,c
  6145  00223A  26D9               	addwf	fsr2l,f,c
  6146  00223C  5037               	movf	_EP0_Inbdp+1,w,c
  6147  00223E  22DA               	addwfc	fsr2h,f,c
  6148  002240  C001  FFDF         	movff	usb_ack_dat1@bdcnt,indf2
  6149                           
  6150                           ;usb_stack.c: 549: EP0_Inbdp->BDSTAT = (0x40 | 0x80 | 0x08);
  6151  002244  C036  FFD9         	movff	_EP0_Inbdp,fsr2l
  6152  002248  C037  FFDA         	movff	_EP0_Inbdp+1,fsr2h
  6153  00224C  0EC8               	movlw	200
  6154  00224E  6EDF               	movwf	indf2,c
  6155  002250  0012               	return	
  6156  002252                     __end_of_usb_ack_dat1:
  6157                           	opt stack 0
  6158                           tosu	equ	0xFFF
  6159                           tosh	equ	0xFFE
  6160                           tosl	equ	0xFFD
  6161                           pclath	equ	0xFFA
  6162                           tblptru	equ	0xFF8
  6163                           tblptrh	equ	0xFF7
  6164                           tblptrl	equ	0xFF6
  6165                           tablat	equ	0xFF5
  6166                           prodh	equ	0xFF4
  6167                           prodl	equ	0xFF3
  6168                           postinc0	equ	0xFEE
  6169                           wreg	equ	0xFE8
  6170                           indf1	equ	0xFE7
  6171                           postdec1	equ	0xFE5
  6172                           fsr1h	equ	0xFE2
  6173                           fsr1l	equ	0xFE1
  6174                           indf2	equ	0xFDF
  6175                           postinc2	equ	0xFDE
  6176                           postdec2	equ	0xFDD
  6177                           plusw2	equ	0xFDB
  6178                           fsr2h	equ	0xFDA
  6179                           fsr2l	equ	0xFD9
  6180                           status	equ	0xFD8
  6181                           
  6182 ;; *************** function _usb_set_out_handler *****************
  6183 ;; Defined at:
  6184 ;;		line 537 in file "../dp_usb/usb_stack.c"
  6185 ;; Parameters:    Size  Location     Type
  6186 ;;  ep              2    0[COMRAM] int 
  6187 ;;  out_handler     2    2[COMRAM] PTR FTN()void 
  6188 ;;		 -> cdc_set_line_coding_data(0), Absolute function(0), 
  6189 ;; Auto vars:     Size  Location     Type
  6190 ;;		None
  6191 ;; Return value:  Size  Location     Type
  6192 ;;		None               void
  6193 ;; Registers used:
  6194 ;;		wreg, fsr2l, fsr2h, status,2, status,0
  6195 ;; Tracked objects:
  6196 ;;		On entry : 0/0
  6197 ;;		On exit  : 0/0
  6198 ;;		Unchanged: 0/0
  6199 ;; Data sizes:     COMRAM   BANK0   BANK1   BANK2   BANK3   BANK4   BANK5   BANK6   BANK7
  6200 ;;      Params:         4       0       0       0       0       0       0       0       0
  6201 ;;      Locals:         0       0       0       0       0       0       0       0       0
  6202 ;;      Temps:          2       0       0       0       0       0       0       0       0
  6203 ;;      Totals:         6       0       0       0       0       0       0       0       0
  6204 ;;Total ram usage:        6 bytes
  6205 ;; Hardware stack levels used:    1
  6206 ;; This function calls:
  6207 ;;		Nothing
  6208 ;; This function is called by:
  6209 ;;		_user_configured_init
  6210 ;;		_cdc_setup
  6211 ;;		_cdc_set_line_coding_data
  6212 ;;		_usb_init
  6213 ;; This function uses a non-reentrant model
  6214 ;;
  6215                           
  6216                           	psect	text32
  6217  002132                     __ptext32:
  6218                           	opt stack 0
  6219  002132                     _usb_set_out_handler:
  6220                           	opt stack 28
  6221                           
  6222                           ;usb_stack.c: 538: endpoints[ep].out_handler = out_handler;
  6223                           
  6224                           ;incstack = 0
  6225                           ;incstack = 0
  6226  002132  C001  F005         	movff	usb_set_out_handler@ep,??_usb_set_out_handler
  6227  002136  C002  F006         	movff	usb_set_out_handler@ep+1,??_usb_set_out_handler+1
  6228  00213A  90D8               	bcf	status,0,c
  6229  00213C  3605               	rlcf	??_usb_set_out_handler,f,c
  6230  00213E  3606               	rlcf	??_usb_set_out_handler+1,f,c
  6231  002140  90D8               	bcf	status,0,c
  6232  002142  3605               	rlcf	??_usb_set_out_handler,f,c
  6233  002144  3606               	rlcf	??_usb_set_out_handler+1,f,c
  6234  002146  0E02               	movlw	2
  6235  002148  2605               	addwf	??_usb_set_out_handler,f,c
  6236  00214A  0E00               	movlw	0
  6237  00214C  2206               	addwfc	??_usb_set_out_handler+1,f,c
  6238  00214E  0100               	movlb	0	; () banked
  6239  002150  0E60               	movlw	low _endpoints
  6240  002152  2405               	addwf	??_usb_set_out_handler,w,c
  6241  002154  6ED9               	movwf	fsr2l,c
  6242  002156  0100               	movlb	0	; () banked
  6243  002158  0E00               	movlw	high _endpoints
  6244  00215A  2006               	addwfc	??_usb_set_out_handler+1,w,c
  6245  00215C  6EDA               	movwf	fsr2h,c
  6246  00215E  C003  FFDE         	movff	usb_set_out_handler@out_handler,postinc2
  6247  002162  C004  FFDD         	movff	usb_set_out_handler@out_handler+1,postdec2
  6248                           
  6249                           ; BSR set to: 0
  6250  002166  0012               	return	
  6251  002168                     __end_of_usb_set_out_handler:
  6252                           	opt stack 0
  6253                           tosu	equ	0xFFF
  6254                           tosh	equ	0xFFE
  6255                           tosl	equ	0xFFD
  6256                           pclath	equ	0xFFA
  6257                           tblptru	equ	0xFF8
  6258                           tblptrh	equ	0xFF7
  6259                           tblptrl	equ	0xFF6
  6260                           tablat	equ	0xFF5
  6261                           prodh	equ	0xFF4
  6262                           prodl	equ	0xFF3
  6263                           postinc0	equ	0xFEE
  6264                           wreg	equ	0xFE8
  6265                           indf1	equ	0xFE7
  6266                           postdec1	equ	0xFE5
  6267                           fsr1h	equ	0xFE2
  6268                           fsr1l	equ	0xFE1
  6269                           indf2	equ	0xFDF
  6270                           postinc2	equ	0xFDE
  6271                           postdec2	equ	0xFDD
  6272                           plusw2	equ	0xFDB
  6273                           fsr2h	equ	0xFDA
  6274                           fsr2l	equ	0xFD9
  6275                           status	equ	0xFD8
  6276                           
  6277 ;; *************** function _usb_set_in_handler *****************
  6278 ;; Defined at:
  6279 ;;		line 533 in file "../dp_usb/usb_stack.c"
  6280 ;; Parameters:    Size  Location     Type
  6281 ;;  ep              2    0[COMRAM] int 
  6282 ;;  in_handler      2    2[COMRAM] PTR FTN()void 
  6283 ;;		 -> usb_send_rom(0), usb_set_address(0), cdc_set_line_coding_status(0), cdc_set_control_line_state_status(0), 
  6284 ;;		 -> cdc_get_line_coding(0), Absolute function(0), 
  6285 ;; Auto vars:     Size  Location     Type
  6286 ;;		None
  6287 ;; Return value:  Size  Location     Type
  6288 ;;		None               void
  6289 ;; Registers used:
  6290 ;;		wreg, fsr2l, fsr2h, status,2, status,0
  6291 ;; Tracked objects:
  6292 ;;		On entry : 0/0
  6293 ;;		On exit  : 0/0
  6294 ;;		Unchanged: 0/0
  6295 ;; Data sizes:     COMRAM   BANK0   BANK1   BANK2   BANK3   BANK4   BANK5   BANK6   BANK7
  6296 ;;      Params:         4       0       0       0       0       0       0       0       0
  6297 ;;      Locals:         0       0       0       0       0       0       0       0       0
  6298 ;;      Temps:          2       0       0       0       0       0       0       0       0
  6299 ;;      Totals:         6       0       0       0       0       0       0       0       0
  6300 ;;Total ram usage:        6 bytes
  6301 ;; Hardware stack levels used:    1
  6302 ;; This function calls:
  6303 ;;		Nothing
  6304 ;; This function is called by:
  6305 ;;		_user_configured_init
  6306 ;;		_cdc_setup
  6307 ;;		_cdc_get_line_coding
  6308 ;;		_cdc_set_line_coding_data
  6309 ;;		_cdc_set_line_coding_status
  6310 ;;		_cdc_set_control_line_state_status
  6311 ;;		_usb_init
  6312 ;;		_usb_handle_StandardDeviceRequest
  6313 ;;		_usb_set_address
  6314 ;;		_usb_send_rom
  6315 ;; This function uses a non-reentrant model
  6316 ;;
  6317                           
  6318                           	psect	text33
  6319  002196                     __ptext33:
  6320                           	opt stack 0
  6321  002196                     _usb_set_in_handler:
  6322                           	opt stack 28
  6323                           
  6324                           ;usb_stack.c: 534: endpoints[ep].in_handler = in_handler;
  6325                           
  6326                           ; BSR set to: 0
  6327                           ;incstack = 0
  6328                           ;incstack = 0
  6329  002196  C001  F005         	movff	usb_set_in_handler@ep,??_usb_set_in_handler
  6330  00219A  C002  F006         	movff	usb_set_in_handler@ep+1,??_usb_set_in_handler+1
  6331  00219E  90D8               	bcf	status,0,c
  6332  0021A0  3605               	rlcf	??_usb_set_in_handler,f,c
  6333  0021A2  3606               	rlcf	??_usb_set_in_handler+1,f,c
  6334  0021A4  90D8               	bcf	status,0,c
  6335  0021A6  3605               	rlcf	??_usb_set_in_handler,f,c
  6336  0021A8  3606               	rlcf	??_usb_set_in_handler+1,f,c
  6337  0021AA  0100               	movlb	0	; () banked
  6338  0021AC  0E60               	movlw	low _endpoints
  6339  0021AE  2405               	addwf	??_usb_set_in_handler,w,c
  6340  0021B0  6ED9               	movwf	fsr2l,c
  6341  0021B2  0100               	movlb	0	; () banked
  6342  0021B4  0E00               	movlw	high _endpoints
  6343  0021B6  2006               	addwfc	??_usb_set_in_handler+1,w,c
  6344  0021B8  6EDA               	movwf	fsr2h,c
  6345  0021BA  C003  FFDE         	movff	usb_set_in_handler@in_handler,postinc2
  6346  0021BE  C004  FFDD         	movff	usb_set_in_handler@in_handler+1,postdec2
  6347                           
  6348                           ; BSR set to: 0
  6349  0021C2  0012               	return	
  6350  0021C4                     __end_of_usb_set_in_handler:
  6351                           	opt stack 0
  6352                           tosu	equ	0xFFF
  6353                           tosh	equ	0xFFE
  6354                           tosl	equ	0xFFD
  6355                           pclath	equ	0xFFA
  6356                           tblptru	equ	0xFF8
  6357                           tblptrh	equ	0xFF7
  6358                           tblptrl	equ	0xFF6
  6359                           tablat	equ	0xFF5
  6360                           prodh	equ	0xFF4
  6361                           prodl	equ	0xFF3
  6362                           postinc0	equ	0xFEE
  6363                           wreg	equ	0xFE8
  6364                           indf1	equ	0xFE7
  6365                           postdec1	equ	0xFE5
  6366                           fsr1h	equ	0xFE2
  6367                           fsr1l	equ	0xFE1
  6368                           indf2	equ	0xFDF
  6369                           postinc2	equ	0xFDE
  6370                           postdec2	equ	0xFDD
  6371                           plusw2	equ	0xFDB
  6372                           fsr2h	equ	0xFDA
  6373                           fsr2l	equ	0xFD9
  6374                           status	equ	0xFD8
  6375                           
  6376 ;; *************** function _USBSuspend *****************
  6377 ;; Defined at:
  6378 ;;		line 100 in file "main.c"
  6379 ;; Parameters:    Size  Location     Type
  6380 ;;		None
  6381 ;; Auto vars:     Size  Location     Type
  6382 ;;		None
  6383 ;; Return value:  Size  Location     Type
  6384 ;;		None               void
  6385 ;; Registers used:
  6386 ;;		None
  6387 ;; Tracked objects:
  6388 ;;		On entry : 0/0
  6389 ;;		On exit  : 0/0
  6390 ;;		Unchanged: 0/0
  6391 ;; Data sizes:     COMRAM   BANK0   BANK1   BANK2   BANK3   BANK4   BANK5   BANK6   BANK7
  6392 ;;      Params:         0       0       0       0       0       0       0       0       0
  6393 ;;      Locals:         0       0       0       0       0       0       0       0       0
  6394 ;;      Temps:          0       0       0       0       0       0       0       0       0
  6395 ;;      Totals:         0       0       0       0       0       0       0       0       0
  6396 ;;Total ram usage:        0 bytes
  6397 ;; Hardware stack levels used:    1
  6398 ;; This function calls:
  6399 ;;		Nothing
  6400 ;; This function is called by:
  6401 ;;		_usb_handler
  6402 ;; This function uses a non-reentrant model
  6403 ;;
  6404                           
  6405                           	psect	text34
  6406  00231A                     __ptext34:
  6407                           	opt stack 0
  6408  00231A                     _USBSuspend:
  6409                           	opt stack 26
  6410                           
  6411                           ; BSR set to: 0
  6412                           ;incstack = 0
  6413                           ;incstack = 0
  6414  00231A  0012               	return	
  6415  00231C                     __end_of_USBSuspend:
  6416                           	opt stack 0
  6417                           tosu	equ	0xFFF
  6418                           tosh	equ	0xFFE
  6419                           tosl	equ	0xFFD
  6420                           pclath	equ	0xFFA
  6421                           tblptru	equ	0xFF8
  6422                           tblptrh	equ	0xFF7
  6423                           tblptrl	equ	0xFF6
  6424                           tablat	equ	0xFF5
  6425                           prodh	equ	0xFF4
  6426                           prodl	equ	0xFF3
  6427                           postinc0	equ	0xFEE
  6428                           wreg	equ	0xFE8
  6429                           indf1	equ	0xFE7
  6430                           postdec1	equ	0xFE5
  6431                           fsr1h	equ	0xFE2
  6432                           fsr1l	equ	0xFE1
  6433                           indf2	equ	0xFDF
  6434                           postinc2	equ	0xFDE
  6435                           postdec2	equ	0xFDD
  6436                           plusw2	equ	0xFDB
  6437                           fsr2h	equ	0xFDA
  6438                           fsr2l	equ	0xFD9
  6439                           status	equ	0xFD8
  6440                           
  6441 ;; *************** function _usb_handle_reset *****************
  6442 ;; Defined at:
  6443 ;;		line 121 in file "../dp_usb/usb_stack.c"
  6444 ;; Parameters:    Size  Location     Type
  6445 ;;		None
  6446 ;; Auto vars:     Size  Location     Type
  6447 ;;		None
  6448 ;; Return value:  Size  Location     Type
  6449 ;;		None               void
  6450 ;; Registers used:
  6451 ;;		wreg, fsr2l, fsr2h, status,2, status,0, cstack
  6452 ;; Tracked objects:
  6453 ;;		On entry : 0/0
  6454 ;;		On exit  : 0/0
  6455 ;;		Unchanged: 0/0
  6456 ;; Data sizes:     COMRAM   BANK0   BANK1   BANK2   BANK3   BANK4   BANK5   BANK6   BANK7
  6457 ;;      Params:         0       0       0       0       0       0       0       0       0
  6458 ;;      Locals:         0       0       0       0       0       0       0       0       0
  6459 ;;      Temps:          1       0       0       0       0       0       0       0       0
  6460 ;;      Totals:         1       0       0       0       0       0       0       0       0
  6461 ;;Total ram usage:        1 bytes
  6462 ;; Hardware stack levels used:    1
  6463 ;; Hardware stack levels required when called:    1
  6464 ;; This function calls:
  6465 ;;		_ClearUSBtoDefault
  6466 ;; This function is called by:
  6467 ;;		_usb_handler
  6468 ;; This function uses a non-reentrant model
  6469 ;;
  6470                           
  6471                           	psect	text35
  6472  002212                     __ptext35:
  6473                           	opt stack 0
  6474  002212                     _usb_handle_reset:
  6475                           	opt stack 25
  6476  002212                     l306:
  6477                           
  6478                           ;usb_stack.c: 123: UIR &= ~(0x08);
  6479  002212  9668               	bcf	3944,3,c	;volatile
  6480                           
  6481                           ;usb_stack.c: 124: usb_current_cfg = 0;
  6482  002214  0E00               	movlw	0
  6483  002216  6E41               	movwf	_usb_current_cfg+1,c
  6484  002218  0E00               	movlw	0
  6485  00221A  6E40               	movwf	_usb_current_cfg,c
  6486                           
  6487                           ;usb_stack.c: 125: usb_device_state = DEFAULT_STATE;
  6488  00221C  0E04               	movlw	4
  6489  00221E  6E5A               	movwf	_usb_device_state,c	;volatile
  6490                           
  6491                           ;usb_stack.c: 126: usb_addr_pending = 0x00;
  6492  002220  6E05               	movwf	??_usb_handle_reset& (0+255),c
  6493  002222  0E00               	movlw	0
  6494  002224  6E59               	movwf	_usb_addr_pending,c
  6495  002226  5005               	movf	??_usb_handle_reset& (0+255),w,c
  6496                           
  6497                           ;usb_stack.c: 127: } while (UIRbits.TRNIF);
  6498  002228  B668               	btfsc	3944,3,c	;volatile
  6499  00222A  D7F3               	goto	l306
  6500                           
  6501                           ;usb_stack.c: 129: ClearUSBtoDefault();
  6502  00222C  ECE9  F009         	call	_ClearUSBtoDefault	;wreg free
  6503                           
  6504                           ;usb_stack.c: 130: UCONbits.PKTDIS = 0;
  6505  002230  986D               	bcf	3949,4,c	;volatile
  6506  002232  0012               	return	
  6507  002234                     __end_of_usb_handle_reset:
  6508                           	opt stack 0
  6509                           tosu	equ	0xFFF
  6510                           tosh	equ	0xFFE
  6511                           tosl	equ	0xFFD
  6512                           pclath	equ	0xFFA
  6513                           tblptru	equ	0xFF8
  6514                           tblptrh	equ	0xFF7
  6515                           tblptrl	equ	0xFF6
  6516                           tablat	equ	0xFF5
  6517                           prodh	equ	0xFF4
  6518                           prodl	equ	0xFF3
  6519                           postinc0	equ	0xFEE
  6520                           wreg	equ	0xFE8
  6521                           indf1	equ	0xFE7
  6522                           postdec1	equ	0xFE5
  6523                           fsr1h	equ	0xFE2
  6524                           fsr1l	equ	0xFE1
  6525                           indf2	equ	0xFDF
  6526                           postinc2	equ	0xFDE
  6527                           postdec2	equ	0xFDD
  6528                           plusw2	equ	0xFDB
  6529                           fsr2h	equ	0xFDA
  6530                           fsr2l	equ	0xFD9
  6531                           status	equ	0xFD8
  6532                           
  6533 ;; *************** function _ClearUSBtoDefault *****************
  6534 ;; Defined at:
  6535 ;;		line 133 in file "../dp_usb/usb_stack.c"
  6536 ;; Parameters:    Size  Location     Type
  6537 ;;		None
  6538 ;; Auto vars:     Size  Location     Type
  6539 ;;  i               2    2[COMRAM] int 
  6540 ;; Return value:  Size  Location     Type
  6541 ;;		None               void
  6542 ;; Registers used:
  6543 ;;		wreg, fsr2l, fsr2h, status,2, status,0
  6544 ;; Tracked objects:
  6545 ;;		On entry : 0/0
  6546 ;;		On exit  : 0/0
  6547 ;;		Unchanged: 0/0
  6548 ;; Data sizes:     COMRAM   BANK0   BANK1   BANK2   BANK3   BANK4   BANK5   BANK6   BANK7
  6549 ;;      Params:         0       0       0       0       0       0       0       0       0
  6550 ;;      Locals:         2       0       0       0       0       0       0       0       0
  6551 ;;      Temps:          2       0       0       0       0       0       0       0       0
  6552 ;;      Totals:         4       0       0       0       0       0       0       0       0
  6553 ;;Total ram usage:        4 bytes
  6554 ;; Hardware stack levels used:    1
  6555 ;; This function calls:
  6556 ;;		Nothing
  6557 ;; This function is called by:
  6558 ;;		_usb_init
  6559 ;;		_usb_handle_reset
  6560 ;; This function uses a non-reentrant model
  6561 ;;
  6562                           
  6563                           	psect	text36
  6564  0013D2                     __ptext36:
  6565                           	opt stack 0
  6566  0013D2                     _ClearUSBtoDefault:
  6567                           	opt stack 28
  6568                           
  6569                           ;usb_stack.c: 134: int i;
  6570                           ;usb_stack.c: 135: sof_handler = (0);
  6571                           
  6572                           ;incstack = 0
  6573                           ;incstack = 0
  6574  0013D2  0E00               	movlw	0
  6575  0013D4  6E3F               	movwf	_sof_handler+1,c
  6576  0013D6  0E00               	movlw	0
  6577  0013D8  6E3E               	movwf	_sof_handler,c
  6578                           
  6579                           ;usb_stack.c: 136: class_setup_handler = (0);
  6580  0013DA  0E00               	movlw	0
  6581  0013DC  0100               	movlb	0	; () banked
  6582  0013DE  0100               	movlb	0	; () banked
  6583  0013E0  6FDB               	movwf	(_class_setup_handler+1)& (0+255),b
  6584  0013E2  0E00               	movlw	0
  6585  0013E4  0100               	movlb	0	; () banked
  6586  0013E6  6FDA               	movwf	_class_setup_handler& (0+255),b
  6587                           
  6588                           ;usb_stack.c: 137: vendor_setup_handler = (0);
  6589  0013E8  0E00               	movlw	0
  6590  0013EA  6E47               	movwf	_vendor_setup_handler+1,c
  6591  0013EC  0E00               	movlw	0
  6592  0013EE  6E46               	movwf	_vendor_setup_handler,c
  6593                           
  6594                           ;usb_stack.c: 139: (UADDR = (0));
  6595  0013F0  0E00               	movlw	0
  6596  0013F2  6E6E               	movwf	3950,c	;volatile
  6597                           
  6598                           ; BSR set to: 0
  6599                           
  6600                           ; BSR set to: 0
  6601                           
  6602                           ;usb_stack.c: 140: do {UCONbits.PPBRST = 1; UCONbits.PPBRST=0;} while(0);
  6603  0013F4  8C6D               	bsf	3949,6,c	;volatile
  6604                           
  6605                           ; BSR set to: 0
  6606  0013F6  9C6D               	bcf	3949,6,c	;volatile
  6607                           
  6608                           ; BSR set to: 0
  6609                           ;usb_stack.c: 141: UEIR = 0;
  6610  0013F8  0E00               	movlw	0
  6611  0013FA  6E6A               	movwf	3946,c	;volatile
  6612                           
  6613                           ;usb_stack.c: 143: for (i = 0; i < (16u); i++) {
  6614  0013FC  0E00               	movlw	0
  6615  0013FE  6E04               	movwf	ClearUSBtoDefault@i+1,c
  6616  001400  0E00               	movlw	0
  6617  001402  6E03               	movwf	ClearUSBtoDefault@i,c
  6618  001404                     
  6619                           ; BSR set to: 0
  6620  001404  0E10               	movlw	16
  6621  001406  5C03               	subwf	ClearUSBtoDefault@i,w,c
  6622  001408  0E00               	movlw	0
  6623  00140A  5804               	subwfb	ClearUSBtoDefault@i+1,w,c
  6624  00140C  B0D8               	btfsc	status,0,c
  6625  00140E  D03B               	goto	l2343
  6626                           
  6627                           ; BSR set to: 0
  6628                           ;usb_stack.c: 144: endpoints[i].out_handler = (0);
  6629                           
  6630                           ; BSR set to: 0
  6631                           
  6632                           ; BSR set to: 0
  6633  001410  C003  F001         	movff	ClearUSBtoDefault@i,??_ClearUSBtoDefault
  6634  001414  C004  F002         	movff	ClearUSBtoDefault@i+1,??_ClearUSBtoDefault+1
  6635  001418  90D8               	bcf	status,0,c
  6636  00141A  3601               	rlcf	??_ClearUSBtoDefault,f,c
  6637  00141C  3602               	rlcf	??_ClearUSBtoDefault+1,f,c
  6638  00141E  90D8               	bcf	status,0,c
  6639  001420  3601               	rlcf	??_ClearUSBtoDefault,f,c
  6640  001422  3602               	rlcf	??_ClearUSBtoDefault+1,f,c
  6641  001424  0E02               	movlw	2
  6642  001426  2601               	addwf	??_ClearUSBtoDefault,f,c
  6643  001428  0E00               	movlw	0
  6644  00142A  2202               	addwfc	??_ClearUSBtoDefault+1,f,c
  6645  00142C  0100               	movlb	0	; () banked
  6646  00142E  0E60               	movlw	low _endpoints
  6647  001430  2401               	addwf	??_ClearUSBtoDefault,w,c
  6648  001432  6ED9               	movwf	fsr2l,c
  6649  001434  0100               	movlb	0	; () banked
  6650  001436  0E00               	movlw	high _endpoints
  6651  001438  2002               	addwfc	??_ClearUSBtoDefault+1,w,c
  6652  00143A  6EDA               	movwf	fsr2h,c
  6653  00143C  0E00               	movlw	0
  6654  00143E  6EDE               	movwf	postinc2,c
  6655  001440  0E00               	movlw	0
  6656  001442  6EDD               	movwf	postdec2,c
  6657                           
  6658                           ;usb_stack.c: 145: endpoints[i].in_handler = (0);
  6659  001444  C003  F001         	movff	ClearUSBtoDefault@i,??_ClearUSBtoDefault
  6660  001448  C004  F002         	movff	ClearUSBtoDefault@i+1,??_ClearUSBtoDefault+1
  6661  00144C  90D8               	bcf	status,0,c
  6662  00144E  3601               	rlcf	??_ClearUSBtoDefault,f,c
  6663  001450  3602               	rlcf	??_ClearUSBtoDefault+1,f,c
  6664  001452  90D8               	bcf	status,0,c
  6665  001454  3601               	rlcf	??_ClearUSBtoDefault,f,c
  6666  001456  3602               	rlcf	??_ClearUSBtoDefault+1,f,c
  6667  001458  0100               	movlb	0	; () banked
  6668  00145A  0E60               	movlw	low _endpoints
  6669  00145C  2401               	addwf	??_ClearUSBtoDefault,w,c
  6670  00145E  6ED9               	movwf	fsr2l,c
  6671  001460  0100               	movlb	0	; () banked
  6672  001462  0E00               	movlw	high _endpoints
  6673  001464  2002               	addwfc	??_ClearUSBtoDefault+1,w,c
  6674  001466  6EDA               	movwf	fsr2h,c
  6675  001468  0E00               	movlw	0
  6676  00146A  6EDE               	movwf	postinc2,c
  6677  00146C  0E00               	movlw	0
  6678  00146E  6EDD               	movwf	postdec2,c
  6679                           
  6680                           ;usb_stack.c: 146: ((usb_uep_t*) (&UEP0))[i] = 0;
  6681  001470  0E70               	movlw	112	;volatile
  6682  001472  2403               	addwf	ClearUSBtoDefault@i,w,c
  6683  001474  6ED9               	movwf	fsr2l,c
  6684  001476  0E0F               	movlw	15	;volatile
  6685  001478  2004               	addwfc	ClearUSBtoDefault@i+1,w,c
  6686  00147A  6EDA               	movwf	fsr2h,c
  6687  00147C  0E00               	movlw	0
  6688  00147E  6EDF               	movwf	indf2,c
  6689                           
  6690                           ; BSR set to: 0
  6691  001480  4A03               	infsnz	ClearUSBtoDefault@i,f,c
  6692  001482  2A04               	incf	ClearUSBtoDefault@i+1,f,c
  6693  001484  D7BF               	goto	L5
  6694  001486                     l2343:
  6695                           
  6696                           ; BSR set to: 0
  6697                           ;usb_stack.c: 147: }
  6698                           ;usb_stack.c: 149: for (i = 0; i < (2 + 2 * 2u); i++) {
  6699  001486  0E00               	movlw	0
  6700  001488  6E04               	movwf	ClearUSBtoDefault@i+1,c
  6701  00148A  0E00               	movlw	0
  6702  00148C  6E03               	movwf	ClearUSBtoDefault@i,c
  6703  00148E                     
  6704                           ; BSR set to: 0
  6705  00148E  0E06               	movlw	6
  6706  001490  5C03               	subwf	ClearUSBtoDefault@i,w,c
  6707  001492  0E00               	movlw	0
  6708  001494  5804               	subwfb	ClearUSBtoDefault@i+1,w,c
  6709  001496  B0D8               	btfsc	status,0,c
  6710  001498  D017               	goto	l2355
  6711                           
  6712                           ; BSR set to: 0
  6713                           ;usb_stack.c: 150: usb_bdt[i].BDSTAT = 0;
  6714                           
  6715                           ; BSR set to: 0
  6716                           
  6717                           ; BSR set to: 0
  6718  00149A  C003  F001         	movff	ClearUSBtoDefault@i,??_ClearUSBtoDefault
  6719  00149E  C004  F002         	movff	ClearUSBtoDefault@i+1,??_ClearUSBtoDefault+1
  6720  0014A2  90D8               	bcf	status,0,c
  6721  0014A4  3601               	rlcf	??_ClearUSBtoDefault,f,c
  6722  0014A6  3602               	rlcf	??_ClearUSBtoDefault+1,f,c
  6723  0014A8  90D8               	bcf	status,0,c
  6724  0014AA  3601               	rlcf	??_ClearUSBtoDefault,f,c
  6725  0014AC  3602               	rlcf	??_ClearUSBtoDefault+1,f,c
  6726  0014AE  0100               	movlb	0	; () banked
  6727  0014B0  0EA2               	movlw	low _usb_bdt
  6728  0014B2  2401               	addwf	??_ClearUSBtoDefault,w,c
  6729  0014B4  6ED9               	movwf	fsr2l,c
  6730  0014B6  0100               	movlb	0	; () banked
  6731  0014B8  0E00               	movlw	high _usb_bdt
  6732  0014BA  2002               	addwfc	??_ClearUSBtoDefault+1,w,c
  6733  0014BC  6EDA               	movwf	fsr2h,c
  6734  0014BE  0E00               	movlw	0
  6735  0014C0  6EDF               	movwf	indf2,c
  6736                           
  6737                           ; BSR set to: 0
  6738  0014C2  4A03               	infsnz	ClearUSBtoDefault@i,f,c
  6739  0014C4  2A04               	incf	ClearUSBtoDefault@i+1,f,c
  6740  0014C6  D7E3               	goto	L6
  6741  0014C8                     l2355:
  6742                           
  6743                           ; BSR set to: 0
  6744                           ;usb_stack.c: 151: }
  6745                           ;usb_stack.c: 153: UEP0 = ((0x10) | (0x02) | (0x04));
  6746  0014C8  0E16               	movlw	22
  6747  0014CA  6E70               	movwf	3952,c	;volatile
  6748                           
  6749                           ;usb_stack.c: 166: usb_device_status = 0x0000;
  6750  0014CC  0E00               	movlw	0
  6751  0014CE  6E43               	movwf	_usb_device_status+1,c
  6752  0014D0  0E00               	movlw	0
  6753  0014D2  6E42               	movwf	_usb_device_status,c
  6754                           
  6755                           ;usb_stack.c: 168: usb_device_state = DETACHED_STATE;
  6756  0014D4  0E00               	movlw	0
  6757  0014D6  6E5A               	movwf	_usb_device_state,c	;volatile
  6758                           
  6759                           ;usb_stack.c: 169: usb_current_cfg = 0;
  6760  0014D8  0E00               	movlw	0
  6761  0014DA  6E41               	movwf	_usb_current_cfg+1,c
  6762  0014DC  0E00               	movlw	0
  6763  0014DE  6E40               	movwf	_usb_current_cfg,c
  6764                           
  6765                           ; BSR set to: 0
  6766                           ;usb_stack.c: 170: usb_addr_pending = 0x00;
  6767  0014E0  6E01               	movwf	??_ClearUSBtoDefault& (0+255),c
  6768  0014E2  0E00               	movlw	0
  6769  0014E4  6E59               	movwf	_usb_addr_pending,c
  6770  0014E6  5001               	movf	??_ClearUSBtoDefault& (0+255),w,c
  6771                           
  6772                           ; BSR set to: 0
  6773                           ;usb_stack.c: 173: usb_bdt[( 2*(0)+(0) )].BDCNT = 8u;
  6774  0014E8  6E01               	movwf	??_ClearUSBtoDefault& (0+255),c
  6775  0014EA  0E08               	movlw	8
  6776  0014EC  0100               	movlb	0	; () banked
  6777  0014EE  0100               	movlb	0	; () banked
  6778  0014F0  6FA3               	movwf	(_usb_bdt+1)& (0+255),b
  6779  0014F2  5001               	movf	??_ClearUSBtoDefault& (0+255),w,c
  6780                           
  6781                           ;usb_stack.c: 174: usb_bdt[( 2*(0)+(0) )].BDADDR = usb_ep0_out_buf;
  6782  0014F4  0100               	movlb	0	; () banked
  6783  0014F6  0E00               	movlw	high _usb_ep0_out_buf
  6784  0014F8  0100               	movlb	0	; () banked
  6785  0014FA  0100               	movlb	0	; () banked
  6786  0014FC  6FA5               	movwf	(_usb_bdt+3)& (0+255),b
  6787  0014FE  0100               	movlb	0	; () banked
  6788  001500  0ECC               	movlw	low _usb_ep0_out_buf
  6789  001502  0100               	movlb	0	; () banked
  6790  001504  6FA4               	movwf	(_usb_bdt+2)& (0+255),b
  6791                           
  6792                           ; BSR set to: 0
  6793                           ;usb_stack.c: 175: usb_bdt[( 2*(0)+(0) )].BDSTAT = 0x80 + 0x08;
  6794  001506  6E01               	movwf	??_ClearUSBtoDefault& (0+255),c
  6795  001508  0E88               	movlw	136
  6796  00150A  0100               	movlb	0	; () banked
  6797  00150C  0100               	movlb	0	; () banked
  6798  00150E  6FA2               	movwf	_usb_bdt& (0+255),b
  6799  001510  5001               	movf	??_ClearUSBtoDefault& (0+255),w,c
  6800                           
  6801                           ; BSR set to: 0
  6802                           ;usb_stack.c: 176: usb_bdt[( 2*(0)+(1) )].BDCNT = 0;
  6803  001512  6E01               	movwf	??_ClearUSBtoDefault& (0+255),c
  6804  001514  0E00               	movlw	0
  6805  001516  0100               	movlb	0	; () banked
  6806  001518  0100               	movlb	0	; () banked
  6807  00151A  6FA7               	movwf	(_usb_bdt+5)& (0+255),b
  6808  00151C  5001               	movf	??_ClearUSBtoDefault& (0+255),w,c
  6809                           
  6810                           ;usb_stack.c: 177: usb_bdt[( 2*(0)+(1) )].BDADDR = usb_ep0_in_buf;
  6811  00151E  0100               	movlb	0	; () banked
  6812  001520  0E00               	movlw	high _usb_ep0_in_buf
  6813  001522  0100               	movlb	0	; () banked
  6814  001524  0100               	movlb	0	; () banked
  6815  001526  6FA9               	movwf	(_usb_bdt+7)& (0+255),b
  6816  001528  0100               	movlb	0	; () banked
  6817  00152A  0EC4               	movlw	low _usb_ep0_in_buf
  6818  00152C  0100               	movlb	0	; () banked
  6819  00152E  6FA8               	movwf	(_usb_bdt+6)& (0+255),b
  6820                           
  6821                           ; BSR set to: 0
  6822                           ;usb_stack.c: 178: usb_bdt[( 2*(0)+(1) )].BDSTAT = 0x40 + 0x08;
  6823  001530  6E01               	movwf	??_ClearUSBtoDefault& (0+255),c
  6824  001532  0E48               	movlw	72
  6825  001534  0100               	movlb	0	; () banked
  6826  001536  0100               	movlb	0	; () banked
  6827  001538  6FA6               	movwf	(_usb_bdt+4)& (0+255),b
  6828  00153A  5001               	movf	??_ClearUSBtoDefault& (0+255),w,c
  6829                           
  6830                           ; BSR set to: 0
  6831  00153C  0012               	return	
  6832  00153E                     __end_of_ClearUSBtoDefault:
  6833                           	opt stack 0
  6834                           tosu	equ	0xFFF
  6835                           tosh	equ	0xFFE
  6836                           tosl	equ	0xFFD
  6837                           pclath	equ	0xFFA
  6838                           tblptru	equ	0xFF8
  6839                           tblptrh	equ	0xFF7
  6840                           tblptrl	equ	0xFF6
  6841                           tablat	equ	0xFF5
  6842                           prodh	equ	0xFF4
  6843                           prodl	equ	0xFF3
  6844                           postinc0	equ	0xFEE
  6845                           wreg	equ	0xFE8
  6846                           indf1	equ	0xFE7
  6847                           postdec1	equ	0xFE5
  6848                           fsr1h	equ	0xFE2
  6849                           fsr1l	equ	0xFE1
  6850                           indf2	equ	0xFDF
  6851                           postinc2	equ	0xFDE
  6852                           postdec2	equ	0xFDD
  6853                           plusw2	equ	0xFDB
  6854                           fsr2h	equ	0xFDA
  6855                           fsr2l	equ	0xFD9
  6856                           status	equ	0xFD8
  6857                           
  6858 ;; *************** function _CDCFlushOnTimeout *****************
  6859 ;; Defined at:
  6860 ;;		line 324 in file "../dp_usb/cdc.c"
  6861 ;; Parameters:    Size  Location     Type
  6862 ;;		None
  6863 ;; Auto vars:     Size  Location     Type
  6864 ;;		None
  6865 ;; Return value:  Size  Location     Type
  6866 ;;		None               void
  6867 ;; Registers used:
  6868 ;;		wreg, fsr2l, fsr2h, status,2, status,0, cstack
  6869 ;; Tracked objects:
  6870 ;;		On entry : 0/0
  6871 ;;		On exit  : 0/0
  6872 ;;		Unchanged: 0/0
  6873 ;; Data sizes:     COMRAM   BANK0   BANK1   BANK2   BANK3   BANK4   BANK5   BANK6   BANK7
  6874 ;;      Params:         0       0       0       0       0       0       0       0       0
  6875 ;;      Locals:         0       0       0       0       0       0       0       0       0
  6876 ;;      Temps:          1       0       0       0       0       0       0       0       0
  6877 ;;      Totals:         1       0       0       0       0       0       0       0       0
  6878 ;;Total ram usage:        1 bytes
  6879 ;; Hardware stack levels used:    1
  6880 ;; Hardware stack levels required when called:    1
  6881 ;; This function calls:
  6882 ;;		_getInReady
  6883 ;;		_putda_cdc
  6884 ;; This function is called by:
  6885 ;;		_main
  6886 ;;		_usb_handler
  6887 ;; This function uses a non-reentrant model
  6888 ;;
  6889                           
  6890                           	psect	text37
  6891  001F12                     __ptext37:
  6892                           	opt stack 0
  6893  001F12                     _CDCFlushOnTimeout:
  6894                           	opt stack 25
  6895                           
  6896                           ;cdc.c: 326: if (cdc_timeout_count >= 4) {
  6897                           
  6898                           ; BSR set to: 0
  6899                           ;incstack = 0
  6900                           ;incstack = 0
  6901  001F12  0E03               	movlw	3
  6902  001F14  6454               	cpfsgt	_cdc_timeout_count,c
  6903  001F16  D02F               	goto	l2609
  6904                           
  6905                           ;cdc.c: 328: if (cdc_In_len > 0) {
  6906  001F18  5052               	movf	_cdc_In_len,w,c
  6907  001F1A  B4D8               	btfsc	status,2,c
  6908  001F1C  D01A               	goto	l2601
  6909                           
  6910                           ;cdc.c: 329: if ((lock == 0) && getInReady()) {
  6911  001F1E  6657               	tstfsz	_lock,c
  6912  001F20  D02B               	goto	l175
  6913  001F22  EC35  F011         	call	_getInReady	;wreg free
  6914  001F26  0900               	iorlw	0
  6915  001F28  B4D8               	btfsc	status,2,c
  6916  001F2A  D026               	goto	l175
  6917                           
  6918                           ;cdc.c: 330: putda_cdc(cdc_In_len);
  6919  001F2C  C052  F001         	movff	_cdc_In_len,?_putda_cdc
  6920  001F30  EC0C  F00E         	call	_putda_cdc	;wreg free
  6921                           
  6922                           ;cdc.c: 331: if (cdc_In_len == 64u) {
  6923  001F34  5052               	movf	_cdc_In_len,w,c
  6924  001F36  0A40               	xorlw	64
  6925  001F38  A4D8               	btfss	status,2,c
  6926  001F3A  D003               	goto	l2599
  6927                           
  6928                           ;cdc.c: 332: ZLPpending = 1;
  6929  001F3C  6E03               	movwf	??_CDCFlushOnTimeout& (0+255),c
  6930  001F3E  0E01               	movlw	1
  6931  001F40  D002               	goto	L7
  6932  001F42                     l2599:
  6933                           
  6934                           ;cdc.c: 334: ZLPpending = 0;
  6935  001F42  6E03               	movwf	??_CDCFlushOnTimeout& (0+255),c
  6936  001F44  0E00               	movlw	0
  6937  001F46                     L7:
  6938  001F46  6E51               	movwf	_ZLPpending,c
  6939  001F48  5003               	movf	??_CDCFlushOnTimeout& (0+255),w,c
  6940                           
  6941                           ;cdc.c: 335: }
  6942                           ;cdc.c: 336: cdc_In_len = 0;
  6943  001F4A  6E03               	movwf	??_CDCFlushOnTimeout& (0+255),c
  6944  001F4C  0E00               	movlw	0
  6945  001F4E  6E52               	movwf	_cdc_In_len,c
  6946  001F50  D00C               	goto	L8
  6947  001F52                     l2601:
  6948  001F52  5051               	movf	_ZLPpending,w,c
  6949  001F54  B4D8               	btfsc	status,2,c
  6950  001F56  D010               	goto	l175
  6951                           
  6952                           ;cdc.c: 340: putda_cdc(0);
  6953  001F58  6E03               	movwf	??_CDCFlushOnTimeout& (0+255),c
  6954  001F5A  0E00               	movlw	0
  6955  001F5C  6E01               	movwf	?_putda_cdc,c
  6956  001F5E  5003               	movf	??_CDCFlushOnTimeout& (0+255),w,c
  6957  001F60  EC0C  F00E         	call	_putda_cdc	;wreg free
  6958                           
  6959                           ;cdc.c: 341: ZLPpending = 0;
  6960  001F64  6E03               	movwf	??_CDCFlushOnTimeout& (0+255),c
  6961  001F66  0E00               	movlw	0
  6962  001F68  6E51               	movwf	_ZLPpending,c
  6963  001F6A                     L8:
  6964  001F6A  5003               	movf	??_CDCFlushOnTimeout& (0+255),w,c
  6965                           
  6966                           ;cdc.c: 342: cdc_timeout_count = 0;
  6967  001F6C  6E03               	movwf	??_CDCFlushOnTimeout& (0+255),c
  6968  001F6E  0E00               	movlw	0
  6969  001F70  6E54               	movwf	_cdc_timeout_count,c
  6970  001F72  5003               	movf	??_CDCFlushOnTimeout& (0+255),w,c
  6971  001F74  D001               	goto	l175
  6972  001F76                     l2609:
  6973                           
  6974                           ;cdc.c: 345: cdc_timeout_count++;
  6975  001F76  2A54               	incf	_cdc_timeout_count,f,c
  6976  001F78                     l175:
  6977  001F78  0012               	return	
  6978  001F7A                     __end_of_CDCFlushOnTimeout:
  6979                           	opt stack 0
  6980                           tosu	equ	0xFFF
  6981                           tosh	equ	0xFFE
  6982                           tosl	equ	0xFFD
  6983                           pclath	equ	0xFFA
  6984                           tblptru	equ	0xFF8
  6985                           tblptrh	equ	0xFF7
  6986                           tblptrl	equ	0xFF6
  6987                           tablat	equ	0xFF5
  6988                           prodh	equ	0xFF4
  6989                           prodl	equ	0xFF3
  6990                           postinc0	equ	0xFEE
  6991                           wreg	equ	0xFE8
  6992                           indf1	equ	0xFE7
  6993                           postdec1	equ	0xFE5
  6994                           fsr1h	equ	0xFE2
  6995                           fsr1l	equ	0xFE1
  6996                           indf2	equ	0xFDF
  6997                           postinc2	equ	0xFDE
  6998                           postdec2	equ	0xFDD
  6999                           plusw2	equ	0xFDB
  7000                           fsr2h	equ	0xFDA
  7001                           fsr2l	equ	0xFD9
  7002                           status	equ	0xFD8
  7003                           
  7004 ;; *************** function _getInReady *****************
  7005 ;; Defined at:
  7006 ;;		line 254 in file "../dp_usb/cdc.c"
  7007 ;; Parameters:    Size  Location     Type
  7008 ;;		None
  7009 ;; Auto vars:     Size  Location     Type
  7010 ;;		None
  7011 ;; Return value:  Size  Location     Type
  7012 ;;                  1    wreg      unsigned char 
  7013 ;; Registers used:
  7014 ;;		wreg, fsr2l, fsr2h, status,2, status,0
  7015 ;; Tracked objects:
  7016 ;;		On entry : 0/0
  7017 ;;		On exit  : 0/0
  7018 ;;		Unchanged: 0/0
  7019 ;; Data sizes:     COMRAM   BANK0   BANK1   BANK2   BANK3   BANK4   BANK5   BANK6   BANK7
  7020 ;;      Params:         0       0       0       0       0       0       0       0       0
  7021 ;;      Locals:         0       0       0       0       0       0       0       0       0
  7022 ;;      Temps:          1       0       0       0       0       0       0       0       0
  7023 ;;      Totals:         1       0       0       0       0       0       0       0       0
  7024 ;;Total ram usage:        1 bytes
  7025 ;; Hardware stack levels used:    1
  7026 ;; This function calls:
  7027 ;;		Nothing
  7028 ;; This function is called by:
  7029 ;;		_CDCFlushOnTimeout
  7030 ;;		_CDC_Flush_In_Now
  7031 ;; This function uses a non-reentrant model
  7032 ;;
  7033                           
  7034                           	psect	text38
  7035  00226A                     __ptext38:
  7036                           	opt stack 0
  7037  00226A                     _getInReady:
  7038                           	opt stack 25
  7039                           
  7040                           ;cdc.c: 256: return !(CDC_Inbdp->BDSTAT & 0x80);
  7041                           
  7042                           ;incstack = 0
  7043                           ;incstack = 0
  7044  00226A  C032  FFD9         	movff	_CDC_Inbdp,fsr2l
  7045  00226E  C033  FFDA         	movff	_CDC_Inbdp+1,fsr2h
  7046  002272  50DF               	movf	indf2,w,c
  7047  002274  6E01               	movwf	??_getInReady& (0+255),c
  7048  002276  BE01               	btfsc	??_getInReady,7,c
  7049  002278  D002               	goto	u1020
  7050  00227A  0E01               	movlw	1
  7051  00227C  D001               	goto	l139
  7052  00227E                     u1020:
  7053  00227E  0E00               	movlw	0
  7054  002280                     l139:
  7055  002280  0012               	return	
  7056  002282                     __end_of_getInReady:
  7057                           	opt stack 0
  7058                           tosu	equ	0xFFF
  7059                           tosh	equ	0xFFE
  7060                           tosl	equ	0xFFD
  7061                           pclath	equ	0xFFA
  7062                           tblptru	equ	0xFF8
  7063                           tblptrh	equ	0xFF7
  7064                           tblptrl	equ	0xFF6
  7065                           tablat	equ	0xFF5
  7066                           prodh	equ	0xFF4
  7067                           prodl	equ	0xFF3
  7068                           postinc0	equ	0xFEE
  7069                           wreg	equ	0xFE8
  7070                           indf1	equ	0xFE7
  7071                           postdec1	equ	0xFE5
  7072                           fsr1h	equ	0xFE2
  7073                           fsr1l	equ	0xFE1
  7074                           indf2	equ	0xFDF
  7075                           postinc2	equ	0xFDE
  7076                           postdec2	equ	0xFDD
  7077                           plusw2	equ	0xFDB
  7078                           fsr2h	equ	0xFDA
  7079                           fsr2l	equ	0xFD9
  7080                           status	equ	0xFD8
  7081                           
  7082 ;; *************** function _WaitOutReady *****************
  7083 ;; Defined at:
  7084 ;;		line 236 in file "../dp_usb/cdc.c"
  7085 ;; Parameters:    Size  Location     Type
  7086 ;;		None
  7087 ;; Auto vars:     Size  Location     Type
  7088 ;;		None
  7089 ;; Return value:  Size  Location     Type
  7090 ;;		None               void
  7091 ;; Registers used:
  7092 ;;		wreg, fsr2l, fsr2h, status,2, status,0
  7093 ;; Tracked objects:
  7094 ;;		On entry : 0/0
  7095 ;;		On exit  : 0/0
  7096 ;;		Unchanged: 0/0
  7097 ;; Data sizes:     COMRAM   BANK0   BANK1   BANK2   BANK3   BANK4   BANK5   BANK6   BANK7
  7098 ;;      Params:         0       0       0       0       0       0       0       0       0
  7099 ;;      Locals:         0       0       0       0       0       0       0       0       0
  7100 ;;      Temps:          1       0       0       0       0       0       0       0       0
  7101 ;;      Totals:         1       0       0       0       0       0       0       0       0
  7102 ;;Total ram usage:        1 bytes
  7103 ;; Hardware stack levels used:    1
  7104 ;; This function calls:
  7105 ;;		Nothing
  7106 ;; This function is called by:
  7107 ;;		_getda_cdc
  7108 ;; This function uses a non-reentrant model
  7109 ;;
  7110                           
  7111                           	psect	text39
  7112  0022DA                     __ptext39:
  7113                           	opt stack 0
  7114  0022DA                     _WaitOutReady:
  7115                           	opt stack 27
  7116  0022DA                     l2259:
  7117  0022DA  C034  FFD9         	movff	_CDC_Outbdp,fsr2l
  7118  0022DE  C035  FFDA         	movff	_CDC_Outbdp+1,fsr2h
  7119  0022E2  50DF               	movf	indf2,w,c
  7120  0022E4  6E01               	movwf	??_WaitOutReady& (0+255),c
  7121  0022E6  AE01               	btfss	??_WaitOutReady,7,c
  7122  0022E8  0012               	return	
  7123  0022EA  D7F7               	goto	l2259
  7124  0022EC                     __end_of_WaitOutReady:
  7125                           	opt stack 0
  7126                           tosu	equ	0xFFF
  7127                           tosh	equ	0xFFE
  7128                           tosl	equ	0xFFD
  7129                           pclath	equ	0xFFA
  7130                           tblptru	equ	0xFF8
  7131                           tblptrh	equ	0xFF7
  7132                           tblptrl	equ	0xFF6
  7133                           tablat	equ	0xFF5
  7134                           prodh	equ	0xFF4
  7135                           prodl	equ	0xFF3
  7136                           postinc0	equ	0xFEE
  7137                           wreg	equ	0xFE8
  7138                           indf1	equ	0xFE7
  7139                           postdec1	equ	0xFE5
  7140                           fsr1h	equ	0xFE2
  7141                           fsr1l	equ	0xFE1
  7142                           indf2	equ	0xFDF
  7143                           postinc2	equ	0xFDE
  7144                           postdec2	equ	0xFDD
  7145                           plusw2	equ	0xFDB
  7146                           fsr2h	equ	0xFDA
  7147                           fsr2l	equ	0xFD9
  7148                           status	equ	0xFD8
  7149                           
  7150 ;; *************** function _putc_cdc *****************
  7151 ;; Defined at:
  7152 ;;		line 350 in file "../dp_usb/cdc.c"
  7153 ;; Parameters:    Size  Location     Type
  7154 ;;  c               1    2[COMRAM] unsigned char 
  7155 ;; Auto vars:     Size  Location     Type
  7156 ;;		None
  7157 ;; Return value:  Size  Location     Type
  7158 ;;		None               void
  7159 ;; Registers used:
  7160 ;;		wreg, fsr2l, fsr2h, status,2, status,0, cstack
  7161 ;; Tracked objects:
  7162 ;;		On entry : 0/0
  7163 ;;		On exit  : 0/0
  7164 ;;		Unchanged: 0/0
  7165 ;; Data sizes:     COMRAM   BANK0   BANK1   BANK2   BANK3   BANK4   BANK5   BANK6   BANK7
  7166 ;;      Params:         1       0       0       0       0       0       0       0       0
  7167 ;;      Locals:         0       0       0       0       0       0       0       0       0
  7168 ;;      Temps:          1       0       0       0       0       0       0       0       0
  7169 ;;      Totals:         2       0       0       0       0       0       0       0       0
  7170 ;;Total ram usage:        2 bytes
  7171 ;; Hardware stack levels used:    1
  7172 ;; Hardware stack levels required when called:    1
  7173 ;; This function calls:
  7174 ;;		_putda_cdc
  7175 ;; This function is called by:
  7176 ;;		_main
  7177 ;; This function uses a non-reentrant model
  7178 ;;
  7179                           
  7180                           	psect	text40
  7181  002030                     __ptext40:
  7182                           	opt stack 0
  7183  002030                     _putc_cdc:
  7184                           	opt stack 28
  7185                           
  7186                           ;cdc.c: 351: lock = 1;
  7187                           
  7188                           ;incstack = 0
  7189                           ;incstack = 0
  7190  002030  6E04               	movwf	??_putc_cdc& (0+255),c
  7191  002032  0E01               	movlw	1
  7192  002034  6E57               	movwf	_lock,c
  7193  002036  5004               	movf	??_putc_cdc& (0+255),w,c
  7194                           
  7195                           ;cdc.c: 352: *InPtr = c;
  7196  002038  C03A  FFD9         	movff	_InPtr,fsr2l
  7197  00203C  C03B  FFDA         	movff	_InPtr+1,fsr2h
  7198  002040  C003  FFDF         	movff	putc_cdc@c,indf2
  7199                           
  7200                           ;cdc.c: 353: InPtr++;
  7201  002044  4A3A               	infsnz	_InPtr,f,c
  7202  002046  2A3B               	incf	_InPtr+1,f,c
  7203                           
  7204                           ;cdc.c: 354: cdc_In_len++;
  7205  002048  2A52               	incf	_cdc_In_len,f,c
  7206                           
  7207                           ;cdc.c: 355: ZLPpending = 0;
  7208  00204A  6E04               	movwf	??_putc_cdc& (0+255),c
  7209  00204C  0E00               	movlw	0
  7210  00204E  6E51               	movwf	_ZLPpending,c
  7211  002050  5004               	movf	??_putc_cdc& (0+255),w,c
  7212                           
  7213                           ;cdc.c: 356: if (cdc_In_len == 64u) {
  7214  002052  5052               	movf	_cdc_In_len,w,c
  7215  002054  0A40               	xorlw	64
  7216  002056  A4D8               	btfss	status,2,c
  7217  002058  D00C               	goto	l2629
  7218                           
  7219                           ;cdc.c: 357: putda_cdc(cdc_In_len);
  7220  00205A  C052  F001         	movff	_cdc_In_len,?_putda_cdc
  7221  00205E  EC0C  F00E         	call	_putda_cdc	;wreg free
  7222                           
  7223                           ;cdc.c: 358: cdc_In_len = 0;
  7224  002062  6E04               	movwf	??_putc_cdc& (0+255),c
  7225  002064  0E00               	movlw	0
  7226  002066  6E52               	movwf	_cdc_In_len,c
  7227  002068  5004               	movf	??_putc_cdc& (0+255),w,c
  7228                           
  7229                           ;cdc.c: 359: ZLPpending = 1;
  7230  00206A  6E04               	movwf	??_putc_cdc& (0+255),c
  7231  00206C  0E01               	movlw	1
  7232  00206E  6E51               	movwf	_ZLPpending,c
  7233  002070  5004               	movf	??_putc_cdc& (0+255),w,c
  7234  002072                     l2629:
  7235                           
  7236                           ;cdc.c: 360: }
  7237                           ;cdc.c: 361: lock = 0;
  7238  002072  6E04               	movwf	??_putc_cdc& (0+255),c
  7239  002074  0E00               	movlw	0
  7240  002076  6E57               	movwf	_lock,c
  7241  002078  5004               	movf	??_putc_cdc& (0+255),w,c
  7242                           
  7243                           ;cdc.c: 362: cdc_timeout_count = 0;
  7244  00207A  6E04               	movwf	??_putc_cdc& (0+255),c
  7245  00207C  0E00               	movlw	0
  7246  00207E  6E54               	movwf	_cdc_timeout_count,c
  7247  002080  5004               	movf	??_putc_cdc& (0+255),w,c
  7248  002082  0012               	return	
  7249  002084                     __end_of_putc_cdc:
  7250                           	opt stack 0
  7251                           tosu	equ	0xFFF
  7252                           tosh	equ	0xFFE
  7253                           tosl	equ	0xFFD
  7254                           pclath	equ	0xFFA
  7255                           tblptru	equ	0xFF8
  7256                           tblptrh	equ	0xFF7
  7257                           tblptrl	equ	0xFF6
  7258                           tablat	equ	0xFF5
  7259                           prodh	equ	0xFF4
  7260                           prodl	equ	0xFF3
  7261                           postinc0	equ	0xFEE
  7262                           wreg	equ	0xFE8
  7263                           indf1	equ	0xFE7
  7264                           postdec1	equ	0xFE5
  7265                           fsr1h	equ	0xFE2
  7266                           fsr1l	equ	0xFE1
  7267                           indf2	equ	0xFDF
  7268                           postinc2	equ	0xFDE
  7269                           postdec2	equ	0xFDD
  7270                           plusw2	equ	0xFDB
  7271                           fsr2h	equ	0xFDA
  7272                           fsr2l	equ	0xFD9
  7273                           status	equ	0xFD8
  7274                           
  7275 ;; *************** function _putda_cdc *****************
  7276 ;; Defined at:
  7277 ;;		line 283 in file "../dp_usb/cdc.c"
  7278 ;; Parameters:    Size  Location     Type
  7279 ;;  count           1    0[COMRAM] unsigned char 
  7280 ;; Auto vars:     Size  Location     Type
  7281 ;;		None
  7282 ;; Return value:  Size  Location     Type
  7283 ;;                  1    wreg      unsigned char 
  7284 ;; Registers used:
  7285 ;;		wreg, fsr2l, fsr2h, status,2, status,0
  7286 ;; Tracked objects:
  7287 ;;		On entry : 0/0
  7288 ;;		On exit  : 0/0
  7289 ;;		Unchanged: 0/0
  7290 ;; Data sizes:     COMRAM   BANK0   BANK1   BANK2   BANK3   BANK4   BANK5   BANK6   BANK7
  7291 ;;      Params:         1       0       0       0       0       0       0       0       0
  7292 ;;      Locals:         0       0       0       0       0       0       0       0       0
  7293 ;;      Temps:          1       0       0       0       0       0       0       0       0
  7294 ;;      Totals:         2       0       0       0       0       0       0       0       0
  7295 ;;Total ram usage:        2 bytes
  7296 ;; Hardware stack levels used:    1
  7297 ;; This function calls:
  7298 ;;		Nothing
  7299 ;; This function is called by:
  7300 ;;		_CDCFlushOnTimeout
  7301 ;;		_putc_cdc
  7302 ;;		_SendZLP
  7303 ;;		_CDC_Flush_In_Now
  7304 ;; This function uses a non-reentrant model
  7305 ;;
  7306                           
  7307                           	psect	text41
  7308  001C18                     __ptext41:
  7309                           	opt stack 0
  7310  001C18                     _putda_cdc:
  7311                           	opt stack 25
  7312  001C18                     l2275:
  7313  001C18  C032  FFD9         	movff	_CDC_Inbdp,fsr2l
  7314  001C1C  C033  FFDA         	movff	_CDC_Inbdp+1,fsr2h
  7315  001C20  50DF               	movf	indf2,w,c
  7316  001C22  6E02               	movwf	??_putda_cdc& (0+255),c
  7317  001C24  BE02               	btfsc	??_putda_cdc,7,c
  7318  001C26  D7F8               	goto	l2275
  7319                           
  7320                           ;cdc.c: 288: if (IsInBufferA) {
  7321  001C28  504A               	movf	_IsInBufferA,w,c
  7322  001C2A  B4D8               	btfsc	status,2,c
  7323  001C2C  D012               	goto	l2283
  7324                           
  7325                           ;cdc.c: 289: CDC_Inbdp->BDADDR = cdc_In_bufferA;
  7326  001C2E  EE20 F002          	lfsr	2,2
  7327  001C32  5032               	movf	_CDC_Inbdp,w,c
  7328  001C34  26D9               	addwf	fsr2l,f,c
  7329  001C36  5033               	movf	_CDC_Inbdp+1,w,c
  7330  001C38  22DA               	addwfc	fsr2h,f,c
  7331  001C3A  0101               	movlb	1	; () banked
  7332  001C3C  0E00               	movlw	low _cdc_In_bufferA
  7333  001C3E  6EDE               	movwf	postinc2,c
  7334  001C40  0101               	movlb	1	; () banked
  7335  001C42  0E01               	movlw	high _cdc_In_bufferA
  7336  001C44  6EDD               	movwf	postdec2,c
  7337                           
  7338                           ; BSR set to: 1
  7339                           ;cdc.c: 290: InPtr = cdc_In_bufferB;
  7340  001C46  0101               	movlb	1	; () banked
  7341  001C48  0E01               	movlw	high _cdc_In_bufferB
  7342  001C4A  6E3B               	movwf	_InPtr+1,c
  7343  001C4C  0101               	movlb	1	; () banked
  7344  001C4E  0E40               	movlw	low _cdc_In_bufferB
  7345  001C50  D011               	goto	L9
  7346  001C52                     l2283:
  7347                           
  7348                           ;cdc.c: 292: CDC_Inbdp->BDADDR = cdc_In_bufferB;
  7349  001C52  EE20 F002          	lfsr	2,2
  7350  001C56  5032               	movf	_CDC_Inbdp,w,c
  7351  001C58  26D9               	addwf	fsr2l,f,c
  7352  001C5A  5033               	movf	_CDC_Inbdp+1,w,c
  7353  001C5C  22DA               	addwfc	fsr2h,f,c
  7354  001C5E  0101               	movlb	1	; () banked
  7355  001C60  0E40               	movlw	low _cdc_In_bufferB
  7356  001C62  6EDE               	movwf	postinc2,c
  7357  001C64  0101               	movlb	1	; () banked
  7358  001C66  0E01               	movlw	high _cdc_In_bufferB
  7359  001C68  6EDD               	movwf	postdec2,c
  7360                           
  7361                           ; BSR set to: 1
  7362                           ;cdc.c: 293: InPtr = cdc_In_bufferA;
  7363  001C6A  0101               	movlb	1	; () banked
  7364  001C6C  0E01               	movlw	high _cdc_In_bufferA
  7365  001C6E  6E3B               	movwf	_InPtr+1,c
  7366  001C70  0101               	movlb	1	; () banked
  7367  001C72  0E00               	movlw	low _cdc_In_bufferA
  7368  001C74                     L9:
  7369  001C74  6E3A               	movwf	_InPtr,c
  7370                           
  7371                           ; BSR set to: 1
  7372                           ;cdc.c: 294: }
  7373                           ;cdc.c: 295: CDC_Inbdp->BDCNT = count;
  7374                           
  7375                           ; BSR set to: 1
  7376  001C76  EE20 F001          	lfsr	2,1
  7377  001C7A  5032               	movf	_CDC_Inbdp,w,c
  7378  001C7C  26D9               	addwf	fsr2l,f,c
  7379  001C7E  5033               	movf	_CDC_Inbdp+1,w,c
  7380  001C80  22DA               	addwfc	fsr2h,f,c
  7381  001C82  C001  FFDF         	movff	putda_cdc@count,indf2
  7382                           
  7383                           ; BSR set to: 1
  7384                           ;cdc.c: 296: CDC_Inbdp->BDSTAT = ((CDC_Inbdp->BDSTAT ^ 0x40) & 0x40) | 0x80 | 0x08;
  7385  001C86  C032  FFD9         	movff	_CDC_Inbdp,fsr2l
  7386  001C8A  C033  FFDA         	movff	_CDC_Inbdp+1,fsr2h
  7387  001C8E  50DF               	movf	indf2,w,c
  7388  001C90  0A40               	xorlw	64
  7389  001C92  0B40               	andlw	64
  7390  001C94  0988               	iorlw	136
  7391  001C96  C032  FFD9         	movff	_CDC_Inbdp,fsr2l
  7392  001C9A  C033  FFDA         	movff	_CDC_Inbdp+1,fsr2h
  7393  001C9E  6EDF               	movwf	indf2,c
  7394                           
  7395                           ; BSR set to: 1
  7396                           ;cdc.c: 297: IsInBufferA ^= 0xFF;
  7397  001CA0  0EFF               	movlw	255
  7398  001CA2  1A4A               	xorwf	_IsInBufferA,f,c
  7399                           
  7400                           ; BSR set to: 1
  7401                           
  7402                           ; BSR set to: 1
  7403                           ;cdc.c: 301: return 0;
  7404                           ;	Return value of _putda_cdc is never used
  7405  001CA4  0012               	return	
  7406  001CA6                     __end_of_putda_cdc:
  7407                           	opt stack 0
  7408                           tosu	equ	0xFFF
  7409                           tosh	equ	0xFFE
  7410                           tosl	equ	0xFFD
  7411                           pclath	equ	0xFFA
  7412                           tblptru	equ	0xFF8
  7413                           tblptrh	equ	0xFF7
  7414                           tblptrl	equ	0xFF6
  7415                           tablat	equ	0xFF5
  7416                           prodh	equ	0xFF4
  7417                           prodl	equ	0xFF3
  7418                           postinc0	equ	0xFEE
  7419                           wreg	equ	0xFE8
  7420                           indf1	equ	0xFE7
  7421                           postdec1	equ	0xFE5
  7422                           fsr1h	equ	0xFE2
  7423                           fsr1l	equ	0xFE1
  7424                           indf2	equ	0xFDF
  7425                           postinc2	equ	0xFDE
  7426                           postdec2	equ	0xFDD
  7427                           plusw2	equ	0xFDB
  7428                           fsr2h	equ	0xFDA
  7429                           fsr2l	equ	0xFD9
  7430                           status	equ	0xFD8
  7431                           
  7432 ;; *************** function _initCDC *****************
  7433 ;; Defined at:
  7434 ;;		line 68 in file "../dp_usb/cdc.c"
  7435 ;; Parameters:    Size  Location     Type
  7436 ;;		None
  7437 ;; Auto vars:     Size  Location     Type
  7438 ;;		None
  7439 ;; Return value:  Size  Location     Type
  7440 ;;		None               void
  7441 ;; Registers used:
  7442 ;;		wreg, status,2, cstack
  7443 ;; Tracked objects:
  7444 ;;		On entry : 0/0
  7445 ;;		On exit  : 0/0
  7446 ;;		Unchanged: 0/0
  7447 ;; Data sizes:     COMRAM   BANK0   BANK1   BANK2   BANK3   BANK4   BANK5   BANK6   BANK7
  7448 ;;      Params:         0       0       0       0       0       0       0       0       0
  7449 ;;      Locals:         0       0       0       0       0       0       0       0       0
  7450 ;;      Temps:          1       0       0       0       0       0       0       0       0
  7451 ;;      Totals:         1       0       0       0       0       0       0       0       0
  7452 ;;Total ram usage:        1 bytes
  7453 ;; Hardware stack levels used:    1
  7454 ;; Hardware stack levels required when called:    1
  7455 ;; This function calls:
  7456 ;;		_usb_register_class_setup_handler
  7457 ;; This function is called by:
  7458 ;;		_main
  7459 ;; This function uses a non-reentrant model
  7460 ;;
  7461                           
  7462                           	psect	text42
  7463  001FD8                     __ptext42:
  7464                           	opt stack 0
  7465  001FD8                     _initCDC:
  7466                           	opt stack 28
  7467                           
  7468                           ;cdc.c: 76: linecodeing.dwDTERate = 115200;
  7469                           
  7470                           ; BSR set to: 1
  7471                           ;incstack = 0
  7472                           ;incstack = 0
  7473  001FD8  0E00               	movlw	0
  7474  001FDA  0100               	movlb	0	; () banked
  7475  001FDC  0100               	movlb	0	; () banked
  7476  001FDE  6FDE               	movwf	_linecodeing& (0+255),b
  7477  001FE0  0EC2               	movlw	194
  7478  001FE2  0100               	movlb	0	; () banked
  7479  001FE4  6FDF               	movwf	(_linecodeing+1)& (0+255),b
  7480  001FE6  0E01               	movlw	1
  7481  001FE8  0100               	movlb	0	; () banked
  7482  001FEA  6FE0               	movwf	(_linecodeing+2)& (0+255),b
  7483  001FEC  0E00               	movlw	0
  7484  001FEE  0100               	movlb	0	; () banked
  7485  001FF0  6FE1               	movwf	(_linecodeing+3)& (0+255),b
  7486                           
  7487                           ; BSR set to: 0
  7488                           ;cdc.c: 77: linecodeing.bCharFormat = one;
  7489  001FF2  6E03               	movwf	??_initCDC& (0+255),c
  7490  001FF4  0E00               	movlw	0
  7491  001FF6  0100               	movlb	0	; () banked
  7492  001FF8  0100               	movlb	0	; () banked
  7493  001FFA  6FE2               	movwf	(_linecodeing+4)& (0+255),b
  7494  001FFC  5003               	movf	??_initCDC& (0+255),w,c
  7495                           
  7496                           ; BSR set to: 0
  7497                           ;cdc.c: 78: linecodeing.bParityType = none;
  7498  001FFE  6E03               	movwf	??_initCDC& (0+255),c
  7499  002000  0E00               	movlw	0
  7500  002002  0100               	movlb	0	; () banked
  7501  002004  0100               	movlb	0	; () banked
  7502  002006  6FE3               	movwf	(_linecodeing+5)& (0+255),b
  7503  002008  5003               	movf	??_initCDC& (0+255),w,c
  7504                           
  7505                           ; BSR set to: 0
  7506                           ;cdc.c: 79: linecodeing.bDataBits = 8;
  7507  00200A  6E03               	movwf	??_initCDC& (0+255),c
  7508  00200C  0E08               	movlw	8
  7509  00200E  0100               	movlb	0	; () banked
  7510  002010  0100               	movlb	0	; () banked
  7511  002012  6FE4               	movwf	(_linecodeing+6)& (0+255),b
  7512  002014  5003               	movf	??_initCDC& (0+255),w,c
  7513                           
  7514                           ; BSR set to: 0
  7515                           ;cdc.c: 80: cls.DTR = 0;
  7516  002016  0100               	movlb	0	; () banked
  7517  002018  0100               	movlb	0	; () banked
  7518  00201A  91A0               	bcf	_cls& (0+255),0,b
  7519                           
  7520                           ; BSR set to: 0
  7521                           ;cdc.c: 81: cls.RTS = 0;
  7522  00201C  0100               	movlb	0	; () banked
  7523  00201E  0100               	movlb	0	; () banked
  7524  002020  93A0               	bcf	_cls& (0+255),1,b
  7525                           
  7526                           ; BSR set to: 0
  7527                           ;cdc.c: 82: usb_register_class_setup_handler(cdc_setup);
  7528  002022  0E12               	movlw	high _cdc_setup
  7529  002024  6E02               	movwf	?_usb_register_class_setup_handler+1,c
  7530  002026  0E5A               	movlw	low _cdc_setup
  7531  002028  6E01               	movwf	?_usb_register_class_setup_handler,c
  7532  00202A  EC88  F011         	call	_usb_register_class_setup_handler	;wreg free
  7533  00202E  0012               	return	
  7534  002030                     __end_of_initCDC:
  7535                           	opt stack 0
  7536                           tosu	equ	0xFFF
  7537                           tosh	equ	0xFFE
  7538                           tosl	equ	0xFFD
  7539                           pclath	equ	0xFFA
  7540                           tblptru	equ	0xFF8
  7541                           tblptrh	equ	0xFF7
  7542                           tblptrl	equ	0xFF6
  7543                           tablat	equ	0xFF5
  7544                           prodh	equ	0xFF4
  7545                           prodl	equ	0xFF3
  7546                           postinc0	equ	0xFEE
  7547                           wreg	equ	0xFE8
  7548                           indf1	equ	0xFE7
  7549                           postdec1	equ	0xFE5
  7550                           fsr1h	equ	0xFE2
  7551                           fsr1l	equ	0xFE1
  7552                           indf2	equ	0xFDF
  7553                           postinc2	equ	0xFDE
  7554                           postdec2	equ	0xFDD
  7555                           plusw2	equ	0xFDB
  7556                           fsr2h	equ	0xFDA
  7557                           fsr2l	equ	0xFD9
  7558                           status	equ	0xFD8
  7559                           
  7560 ;; *************** function _usb_register_class_setup_handler *****************
  7561 ;; Defined at:
  7562 ;;		line 525 in file "../dp_usb/usb_stack.c"
  7563 ;; Parameters:    Size  Location     Type
  7564 ;;  handler         2    0[COMRAM] PTR FTN()void 
  7565 ;;		 -> cdc_setup(0), 
  7566 ;; Auto vars:     Size  Location     Type
  7567 ;;		None
  7568 ;; Return value:  Size  Location     Type
  7569 ;;		None               void
  7570 ;; Registers used:
  7571 ;;		None
  7572 ;; Tracked objects:
  7573 ;;		On entry : 0/0
  7574 ;;		On exit  : 0/0
  7575 ;;		Unchanged: 0/0
  7576 ;; Data sizes:     COMRAM   BANK0   BANK1   BANK2   BANK3   BANK4   BANK5   BANK6   BANK7
  7577 ;;      Params:         2       0       0       0       0       0       0       0       0
  7578 ;;      Locals:         0       0       0       0       0       0       0       0       0
  7579 ;;      Temps:          0       0       0       0       0       0       0       0       0
  7580 ;;      Totals:         2       0       0       0       0       0       0       0       0
  7581 ;;Total ram usage:        2 bytes
  7582 ;; Hardware stack levels used:    1
  7583 ;; This function calls:
  7584 ;;		Nothing
  7585 ;; This function is called by:
  7586 ;;		_initCDC
  7587 ;;		_user_configured_init
  7588 ;; This function uses a non-reentrant model
  7589 ;;
  7590                           
  7591                           	psect	text43
  7592  002310                     __ptext43:
  7593                           	opt stack 0
  7594  002310                     _usb_register_class_setup_handler:
  7595                           	opt stack 22
  7596                           
  7597                           ;usb_stack.c: 526: class_setup_handler = handler;
  7598                           
  7599                           ;incstack = 0
  7600                           ;incstack = 0
  7601  002310  C001  F0DA         	movff	usb_register_class_setup_handler@handler,_class_setup_handler
  7602  002314  C002  F0DB         	movff	usb_register_class_setup_handler@handler+1,_class_setup_handler+1
  7603  002318  0012               	return	
  7604  00231A                     __end_of_usb_register_class_setup_handler:
  7605                           	opt stack 0
  7606                           tosu	equ	0xFFF
  7607                           tosh	equ	0xFFE
  7608                           tosl	equ	0xFFD
  7609                           pclath	equ	0xFFA
  7610                           tblptru	equ	0xFF8
  7611                           tblptrh	equ	0xFF7
  7612                           tblptrl	equ	0xFF6
  7613                           tablat	equ	0xFF5
  7614                           prodh	equ	0xFF4
  7615                           prodl	equ	0xFF3
  7616                           postinc0	equ	0xFEE
  7617                           wreg	equ	0xFE8
  7618                           indf1	equ	0xFE7
  7619                           postdec1	equ	0xFE5
  7620                           fsr1h	equ	0xFE2
  7621                           fsr1l	equ	0xFE1
  7622                           indf2	equ	0xFDF
  7623                           postinc2	equ	0xFDE
  7624                           postdec2	equ	0xFDD
  7625                           plusw2	equ	0xFDB
  7626                           fsr2h	equ	0xFDA
  7627                           fsr2l	equ	0xFD9
  7628                           status	equ	0xFD8
  7629                           tosu	equ	0xFFF
  7630                           tosh	equ	0xFFE
  7631                           tosl	equ	0xFFD
  7632                           pclath	equ	0xFFA
  7633                           tblptru	equ	0xFF8
  7634                           tblptrh	equ	0xFF7
  7635                           tblptrl	equ	0xFF6
  7636                           tablat	equ	0xFF5
  7637                           prodh	equ	0xFF4
  7638                           prodl	equ	0xFF3
  7639                           postinc0	equ	0xFEE
  7640                           wreg	equ	0xFE8
  7641                           indf1	equ	0xFE7
  7642                           postdec1	equ	0xFE5
  7643                           fsr1h	equ	0xFE2
  7644                           fsr1l	equ	0xFE1
  7645                           indf2	equ	0xFDF
  7646                           postinc2	equ	0xFDE
  7647                           postdec2	equ	0xFDD
  7648                           plusw2	equ	0xFDB
  7649                           fsr2h	equ	0xFDA
  7650                           fsr2l	equ	0xFD9
  7651                           status	equ	0xFD8
  7652                           
  7653                           	psect	text44
  7654  000000                     __ptext44:
  7655                           	opt stack 0
  7656                           tosu	equ	0xFFF
  7657                           tosh	equ	0xFFE
  7658                           tosl	equ	0xFFD
  7659                           pclath	equ	0xFFA
  7660                           tblptru	equ	0xFF8
  7661                           tblptrh	equ	0xFF7
  7662                           tblptrl	equ	0xFF6
  7663                           tablat	equ	0xFF5
  7664                           prodh	equ	0xFF4
  7665                           prodl	equ	0xFF3
  7666                           postinc0	equ	0xFEE
  7667                           wreg	equ	0xFE8
  7668                           indf1	equ	0xFE7
  7669                           postdec1	equ	0xFE5
  7670                           fsr1h	equ	0xFE2
  7671                           fsr1l	equ	0xFE1
  7672                           indf2	equ	0xFDF
  7673                           postinc2	equ	0xFDE
  7674                           postdec2	equ	0xFDD
  7675                           plusw2	equ	0xFDB
  7676                           fsr2h	equ	0xFDA
  7677                           fsr2l	equ	0xFD9
  7678                           status	equ	0xFD8
  7679                           
  7680                           	psect	rparam
  7681  0000                     tosu	equ	0xFFF
  7682                           tosh	equ	0xFFE
  7683                           tosl	equ	0xFFD
  7684                           pclath	equ	0xFFA
  7685                           tblptru	equ	0xFF8
  7686                           tblptrh	equ	0xFF7
  7687                           tblptrl	equ	0xFF6
  7688                           tablat	equ	0xFF5
  7689                           prodh	equ	0xFF4
  7690                           prodl	equ	0xFF3
  7691                           postinc0	equ	0xFEE
  7692                           wreg	equ	0xFE8
  7693                           indf1	equ	0xFE7
  7694                           postdec1	equ	0xFE5
  7695                           fsr1h	equ	0xFE2
  7696                           fsr1l	equ	0xFE1
  7697                           indf2	equ	0xFDF
  7698                           postinc2	equ	0xFDE
  7699                           postdec2	equ	0xFDD
  7700                           plusw2	equ	0xFDB
  7701                           fsr2h	equ	0xFDA
  7702                           fsr2l	equ	0xFD9
  7703                           status	equ	0xFD8


Data Sizes:
    Strings     0
    Constant    172
    Data        0
    BSS         417
    Persistent  20
    Stack       0

Auto Spaces:
    Space          Size  Autos    Used
    COMRAM           95     46      94
    BANK0           160      0     133
    BANK1           256      0     256
    BANK2           256      0       0
    BANK3           239      0       0
    BANK4           256      0       0
    BANK5           256      0       0
    BANK6           256      0       0
    BANK7           256      0       0

Pointer List with Targets:

    NULL.BDADDR	PTR unsigned char  size(2) Largest target is 0
		 -> usb_ep0_in_buf(BANK0[8]), usb_ep0_out_buf(BANK0[8]), cdc_In_bufferB(BANK1[64]), cdc_Out_bufferB(BANK1[64]), 
		 -> cdc_Out_bufferA(BANK1[64]), cdc_In_bufferA(BANK1[64]), cdc_acm_in_buffer(BANK0[10]), 

    ?___awdiv	int  size(2) Largest target is 0

    ?___llmod	unsigned long  size(2) Largest target is 0

    ?___lldiv	unsigned long  size(2) Largest target is 0

    ?_memcpy	PTR void  size(2) Largest target is 64
		 -> usb_ep0_in_buf(BANK0[8]), usb_ep0_out_buf(BANK0[8]), cdc_In_bufferB(BANK1[64]), cdc_Out_bufferB(BANK1[64]), 
		 -> cdc_Out_bufferA(BANK1[64]), cdc_In_bufferA(BANK1[64]), cdc_acm_in_buffer(BANK0[10]), linecodeing(BANK0[7]), 

    memcpy@d1	PTR void  size(2) Largest target is 64
		 -> usb_ep0_in_buf(BANK0[8]), usb_ep0_out_buf(BANK0[8]), cdc_In_bufferB(BANK1[64]), cdc_Out_bufferB(BANK1[64]), 
		 -> cdc_Out_bufferA(BANK1[64]), cdc_In_bufferA(BANK1[64]), cdc_acm_in_buffer(BANK0[10]), linecodeing(BANK0[7]), 

    memcpy@d	PTR unsigned char  size(2) Largest target is 64
		 -> usb_ep0_in_buf(BANK0[8]), usb_ep0_out_buf(BANK0[8]), cdc_In_bufferB(BANK1[64]), cdc_Out_bufferB(BANK1[64]), 
		 -> cdc_Out_bufferA(BANK1[64]), cdc_In_bufferA(BANK1[64]), cdc_acm_in_buffer(BANK0[10]), linecodeing(BANK0[7]), 

    memcpy@s1	PTR const void  size(2) Largest target is 64
		 -> usb_ep0_in_buf(BANK0[8]), usb_ep0_out_buf(BANK0[8]), cdc_In_bufferB(BANK1[64]), cdc_Out_bufferB(BANK1[64]), 
		 -> cdc_Out_bufferA(BANK1[64]), cdc_In_bufferA(BANK1[64]), cdc_acm_in_buffer(BANK0[10]), linecodeing(BANK0[7]), 

    memcpy@s	PTR const unsigned char  size(2) Largest target is 64
		 -> usb_ep0_in_buf(BANK0[8]), usb_ep0_out_buf(BANK0[8]), cdc_In_bufferB(BANK1[64]), cdc_Out_bufferB(BANK1[64]), 
		 -> cdc_Out_bufferA(BANK1[64]), cdc_In_bufferA(BANK1[64]), cdc_acm_in_buffer(BANK0[10]), linecodeing(BANK0[7]), 

    usb_set_out_handler@out_handler	PTR FTN()void  size(2) Largest target is 0
		 -> cdc_set_line_coding_data(), Absolute function(), 

    usb_set_in_handler@in_handler	PTR FTN()void  size(2) Largest target is 0
		 -> usb_send_rom(), usb_set_address(), cdc_set_line_coding_status(), cdc_set_control_line_state_status(), 
		 -> cdc_get_line_coding(), Absolute function(), 

    usb_register_class_setup_handler@handler	PTR FTN()void  size(2) Largest target is 0
		 -> cdc_setup(), 

    usb_register_sof_handler@handler	PTR FTN()void  size(2) Largest target is 0
		 -> CDCFlushOnTimeout(), 

    usb_handle_StandardEndpointRequest@pUEP	PTR unsigned char  size(2) Largest target is 1
		 -> UEP0(ABS[1]), 

    usb_handle_StandardEndpointRequest@epbd.BDADDR	PTR unsigned char  size(2) Largest target is 64
		 -> usb_ep0_in_buf(BANK0[8]), usb_ep0_out_buf(BANK0[8]), cdc_In_bufferB(BANK1[64]), cdc_Out_bufferB(BANK1[64]), 
		 -> cdc_Out_bufferA(BANK1[64]), cdc_In_bufferA(BANK1[64]), cdc_acm_in_buffer(BANK0[10]), 

    usb_handle_StandardEndpointRequest@epbd	PTR struct BDENTRY size(2) Largest target is 30
		 -> usb_bdt(BANK0[24]), 

    usb_handle_StandardEndpointRequest@bdp.BDADDR	PTR unsigned char  size(2) Largest target is 64
		 -> usb_ep0_in_buf(BANK0[8]), usb_ep0_out_buf(BANK0[8]), cdc_In_bufferB(BANK1[64]), cdc_Out_bufferB(BANK1[64]), 
		 -> cdc_Out_bufferA(BANK1[64]), cdc_In_bufferA(BANK1[64]), cdc_acm_in_buffer(BANK0[10]), 

    usb_handle_StandardEndpointRequest@bdp	PTR struct BDENTRY size(2) Largest target is 30
		 -> NULL(NULL[0]), usb_bdt(BANK0[24]), 

    usb_handle_StandardEndpointRequest@packet	PTR unsigned char  size(2) Largest target is 64
		 -> usb_ep0_in_buf(BANK0[8]), usb_ep0_out_buf(BANK0[8]), cdc_In_bufferB(BANK1[64]), cdc_Out_bufferB(BANK1[64]), 
		 -> cdc_Out_bufferA(BANK1[64]), cdc_In_bufferA(BANK1[64]), cdc_acm_in_buffer(BANK0[10]), 

    usb_handle_StandardInterfaceRequest@bdp.BDADDR	PTR unsigned char  size(2) Largest target is 64
		 -> usb_ep0_in_buf(BANK0[8]), usb_ep0_out_buf(BANK0[8]), cdc_In_bufferB(BANK1[64]), cdc_Out_bufferB(BANK1[64]), 
		 -> cdc_Out_bufferA(BANK1[64]), cdc_In_bufferA(BANK1[64]), cdc_acm_in_buffer(BANK0[10]), 

    usb_handle_StandardInterfaceRequest@bdp	PTR struct BDENTRY size(2) Largest target is 30
		 -> NULL(NULL[0]), usb_bdt(BANK0[24]), 

    usb_handle_StandardInterfaceRequest@packet	PTR unsigned char  size(2) Largest target is 64
		 -> usb_ep0_in_buf(BANK0[8]), usb_ep0_out_buf(BANK0[8]), cdc_In_bufferB(BANK1[64]), cdc_Out_bufferB(BANK1[64]), 
		 -> cdc_Out_bufferA(BANK1[64]), cdc_In_bufferA(BANK1[64]), cdc_acm_in_buffer(BANK0[10]), 

    usb_rom_ptr	PTR const unsigned char  size(3) Largest target is 32767
		 -> cdc_str_descs(CODE[82]), cdc_config_descriptor(CODE[67]), cdc_device_descriptor(CODE[18]), ROM(CODE[32767]), 

    usb_handle_StandardDeviceRequest@bdp.BDADDR	PTR unsigned char  size(2) Largest target is 64
		 -> usb_ep0_in_buf(BANK0[8]), usb_ep0_out_buf(BANK0[8]), cdc_In_bufferB(BANK1[64]), cdc_Out_bufferB(BANK1[64]), 
		 -> cdc_Out_bufferA(BANK1[64]), cdc_In_bufferA(BANK1[64]), cdc_acm_in_buffer(BANK0[10]), 

    usb_handle_StandardDeviceRequest@bdp	PTR struct BDENTRY size(2) Largest target is 30
		 -> NULL(NULL[0]), usb_bdt(BANK0[24]), 

    usb_handle_StandardDeviceRequest@packet	PTR unsigned char  size(2) Largest target is 64
		 -> usb_ep0_in_buf(BANK0[8]), usb_ep0_out_buf(BANK0[8]), cdc_In_bufferB(BANK1[64]), cdc_Out_bufferB(BANK1[64]), 
		 -> cdc_Out_bufferA(BANK1[64]), cdc_In_bufferA(BANK1[64]), cdc_acm_in_buffer(BANK0[10]), 

    S189USB_EP_TYPE$out_handler	PTR FTN()void  size(2) Largest target is 0
		 -> cdc_set_line_coding_data(), Absolute function(), 

    endpoints.out_handler	PTR FTN()void  size(2) Largest target is 0
		 -> cdc_set_line_coding_data(), Absolute function(), 

    S189USB_EP_TYPE$in_handler	PTR FTN()void  size(2) Largest target is 0
		 -> usb_send_rom(), usb_set_address(), cdc_set_line_coding_status(), cdc_set_control_line_state_status(), 
		 -> cdc_get_line_coding(), Absolute function(), 

    endpoints.in_handler	PTR FTN()void  size(2) Largest target is 0
		 -> usb_send_rom(), usb_set_address(), cdc_set_line_coding_status(), cdc_set_control_line_state_status(), 
		 -> cdc_get_line_coding(), Absolute function(), 

    vendor_setup_handler	PTR FTN()void  size(2) Largest target is 0
		 -> Absolute function(), 

    class_setup_handler	PTR FTN()void  size(2) Largest target is 0
		 -> Absolute function(), cdc_setup(), 

    sof_handler	PTR FTN()void  size(2) Largest target is 0
		 -> CDCFlushOnTimeout(), Absolute function(), 

    usb_init@string_descriptor	PTR const unsigned char  size(2) Largest target is 82
		 -> cdc_str_descs(CODE[82]), 

    usb_string_descriptor	PTR const unsigned char  size(3) Largest target is 32767
		 -> cdc_str_descs(CODE[82]), ROM(CODE[32767]), 

    usb_init@config_descriptor	PTR const unsigned char  size(2) Largest target is 67
		 -> cdc_config_descriptor(CODE[67]), 

    usb_config_descriptor	PTR const unsigned char  size(3) Largest target is 32767
		 -> cdc_config_descriptor(CODE[67]), ROM(CODE[32767]), 

    usb_init@device_descriptor	PTR const unsigned char  size(2) Largest target is 18
		 -> cdc_device_descriptor(CODE[18]), 

    usb_device_descriptor	PTR const unsigned char  size(3) Largest target is 32767
		 -> cdc_device_descriptor(CODE[18]), ROM(CODE[32767]), 

    peek_getc_cdc@c	PTR unsigned char  size(2) Largest target is 1
		 -> main@RecvdByte(COMRAM[1]), 

    sp__memcpy	PTR void  size(2) Largest target is 64
		 -> usb_ep0_in_buf(BANK0[8]), usb_ep0_out_buf(BANK0[8]), cdc_In_bufferB(BANK1[64]), cdc_Out_bufferB(BANK1[64]), 
		 -> cdc_Out_bufferA(BANK1[64]), cdc_In_bufferA(BANK1[64]), cdc_acm_in_buffer(BANK0[10]), linecodeing(BANK0[7]), 

    EP0_Inbdp.BDADDR	PTR unsigned char  size(2) Largest target is 64
		 -> usb_ep0_in_buf(BANK0[8]), usb_ep0_out_buf(BANK0[8]), cdc_In_bufferB(BANK1[64]), cdc_Out_bufferB(BANK1[64]), 
		 -> cdc_Out_bufferA(BANK1[64]), cdc_In_bufferA(BANK1[64]), cdc_acm_in_buffer(BANK0[10]), 

    EP0_Inbdp	PTR struct BDENTRY size(2) Largest target is 30
		 -> NULL(NULL[0]), usb_bdt(BANK0[24]), 

    EP0_Outbdp.BDADDR	PTR unsigned char  size(2) Largest target is 64
		 -> usb_ep0_in_buf(BANK0[8]), usb_ep0_out_buf(BANK0[8]), cdc_In_bufferB(BANK1[64]), cdc_Out_bufferB(BANK1[64]), 
		 -> cdc_Out_bufferA(BANK1[64]), cdc_In_bufferA(BANK1[64]), cdc_acm_in_buffer(BANK0[10]), 

    EP0_Outbdp	PTR struct BDENTRY size(2) Largest target is 30
		 -> NULL(NULL[0]), usb_bdt(BANK0[24]), 

    cdc_setup@packet	PTR unsigned char  size(2) Largest target is 64
		 -> usb_ep0_in_buf(BANK0[8]), usb_ep0_out_buf(BANK0[8]), cdc_In_bufferB(BANK1[64]), cdc_Out_bufferB(BANK1[64]), 
		 -> cdc_Out_bufferA(BANK1[64]), cdc_In_bufferA(BANK1[64]), cdc_acm_in_buffer(BANK0[10]), 

    CDC_Outbdp.BDADDR	PTR unsigned char  size(2) Largest target is 64
		 -> usb_ep0_in_buf(BANK0[8]), usb_ep0_out_buf(BANK0[8]), cdc_In_bufferB(BANK1[64]), cdc_Out_bufferB(BANK1[64]), 
		 -> cdc_Out_bufferA(BANK1[64]), cdc_In_bufferA(BANK1[64]), cdc_acm_in_buffer(BANK0[10]), 

    OutPtr	PTR unsigned char  size(2) Largest target is 64
		 -> NULL(NULL[0]), cdc_Out_bufferB(BANK1[64]), cdc_Out_bufferA(BANK1[64]), 

    CDC_Inbdp.BDADDR	PTR unsigned char  size(2) Largest target is 64
		 -> usb_ep0_in_buf(BANK0[8]), usb_ep0_out_buf(BANK0[8]), cdc_In_bufferB(BANK1[64]), cdc_Out_bufferB(BANK1[64]), 
		 -> cdc_Out_bufferA(BANK1[64]), cdc_In_bufferA(BANK1[64]), cdc_acm_in_buffer(BANK0[10]), 

    InPtr	PTR unsigned char  size(2) Largest target is 64
		 -> NULL(NULL[0]), cdc_In_bufferB(BANK1[64]), cdc_In_bufferA(BANK1[64]), 

    CDC_Inbdp	PTR struct BDENTRY size(2) Largest target is 30
		 -> NULL(NULL[0]), usb_bdt(BANK0[24]), 

    CDC_Outbdp	PTR struct BDENTRY size(2) Largest target is 30
		 -> NULL(NULL[0]), usb_bdt(BANK0[24]), 

    S41BDENTRY$BDADDR	PTR unsigned char  size(2) Largest target is 64
		 -> usb_ep0_in_buf(BANK0[8]), usb_ep0_out_buf(BANK0[8]), cdc_In_bufferB(BANK1[64]), cdc_Out_bufferB(BANK1[64]), 
		 -> cdc_Out_bufferA(BANK1[64]), cdc_In_bufferA(BANK1[64]), cdc_acm_in_buffer(BANK0[10]), 

    usb_bdt.BDADDR	PTR unsigned char  size(2) Largest target is 64
		 -> usb_ep0_in_buf(BANK0[8]), usb_ep0_out_buf(BANK0[8]), cdc_In_bufferB(BANK1[64]), cdc_Out_bufferB(BANK1[64]), 
		 -> cdc_Out_bufferA(BANK1[64]), cdc_In_bufferA(BANK1[64]), cdc_acm_in_buffer(BANK0[10]), 


Critical Paths under _main in COMRAM

    _main->_getc_cdc
    _main->_peek_getc_cdc
    _usb_init->_usb_set_in_handler
    _usb_init->_usb_set_out_handler
    _peek_getc_cdc->_getda_cdc
    _getc_cdc->_getda_cdc
    _usb_handler->_usb_handle_transaction
    _usb_handle_transaction->_usb_handle_setup
    _usb_handle_in->_usb_send_rom
    _usb_set_address->_usb_set_in_handler
    _cdc_set_control_line_state_status->_usb_set_in_handler
    _cdc_set_line_coding_status->_usb_set_in_handler
    _cdc_get_line_coding->_usb_set_in_handler
    _usb_handle_out->_cdc_set_line_coding_data
    _cdc_set_line_coding_data->___lldiv
    _usb_handle_setup->_usb_handle_StandardDeviceRequest
    _usb_handle_StandardEndpointRequest->_usb_ack_dat1
    _usb_handle_StandardInterfaceRequest->_usb_ack_dat1
    _usb_handle_StandardDeviceRequest->_usb_send_rom
    _usb_send_rom->_usb_set_in_handler
    _user_configured_init->_usb_set_in_handler
    _user_configured_init->_usb_set_out_handler
    _cdc_setup->_memcpy
    _usb_handle_reset->_ClearUSBtoDefault
    _CDCFlushOnTimeout->_putda_cdc
    _putc_cdc->_putda_cdc
    _initCDC->_usb_register_class_setup_handler

Critical Paths under _main in BANK0

    None.

Critical Paths under _main in BANK1

    None.

Critical Paths under _main in BANK2

    None.

Critical Paths under _main in BANK3

    None.

Critical Paths under _main in BANK4

    None.

Critical Paths under _main in BANK5

    None.

Critical Paths under _main in BANK6

    None.

Critical Paths under _main in BANK7

    None.

Call Graph Tables:

 ---------------------------------------------------------------------------------
 (Depth) Function   	        Calls       Base Space   Used Autos Params    Refs
 ---------------------------------------------------------------------------------
 (0) _main                                                 2     2      0   11258
                                             44 COMRAM     2     2      0
                            _initCDC
                        _usb_handler
                           _putc_cdc
                           _getc_cdc
                      _peek_getc_cdc
                           _usb_init
                          _usb_start
           _usb_register_sof_handler
                         _SetupBoard
                       _Delay10KTCYx
 ---------------------------------------------------------------------------------
 (1) _Delay10KTCYx                                         2     1      1      15
                                              0 COMRAM     2     1      1
 ---------------------------------------------------------------------------------
 (1) _SetupBoard                                           0     0      0       0
 ---------------------------------------------------------------------------------
 (1) _usb_register_sof_handler                             2     0      2      15
                                              0 COMRAM     2     0      2
 ---------------------------------------------------------------------------------
 (1) _usb_start                                            0     0      0       0
 ---------------------------------------------------------------------------------
 (1) _usb_init                                             8     0      8     356
                                              6 COMRAM     8     0      8
                 _usb_set_in_handler
                _usb_set_out_handler
                  _ClearUSBtoDefault
 ---------------------------------------------------------------------------------
 (1) _peek_getc_cdc                                        2     0      2    3607
                                             42 COMRAM     2     0      2
                        _getOutReady
                          _getda_cdc
 ---------------------------------------------------------------------------------
 (2) _getOutReady                                          1     1      0       0
                                              0 COMRAM     1     1      0
 ---------------------------------------------------------------------------------
 (1) _getc_cdc                                             2     2      0    3587
                                             42 COMRAM     2     2      0
                          _getda_cdc
 ---------------------------------------------------------------------------------
 (2) _getda_cdc                                            1     1      0    3563
                                             41 COMRAM     1     1      0
                       _WaitOutReady
                        _usb_handler
 ---------------------------------------------------------------------------------
 (3) _usb_handler                                          0     0      0    3563
                   Absolute function
                  _CDCFlushOnTimeout
                   _usb_handle_reset
                         _USBSuspend
             _usb_handle_transaction
 ---------------------------------------------------------------------------------
 (4) _usb_handle_transaction                               2     2      0    3361
                                             39 COMRAM     2     2      0
                   _usb_handle_setup
                     _usb_handle_out
                      _usb_handle_in
                            ___awdiv
 ---------------------------------------------------------------------------------
 (5) ___awdiv                                              9     5      4     300
                                              0 COMRAM     9     5      4
 ---------------------------------------------------------------------------------
 (5) _usb_handle_in                                        1     1      0     379
                                             15 COMRAM     1     1      0
                   Absolute function
                _cdc_get_line_coding
         _cdc_set_line_coding_status
  _cdc_set_control_line_state_status
                       _usb_send_rom
                    _usb_set_address
 ---------------------------------------------------------------------------------
 (6) _usb_set_address                                      0     0      0      44
                 _usb_set_in_handler
 ---------------------------------------------------------------------------------
 (6) _cdc_set_control_line_state_status                    0     0      0      44
                 _usb_set_in_handler
 ---------------------------------------------------------------------------------
 (6) _cdc_set_line_coding_status                           0     0      0      44
                 _usb_set_in_handler
 ---------------------------------------------------------------------------------
 (6) _cdc_get_line_coding                                  0     0      0      44
                 _usb_set_in_handler
 ---------------------------------------------------------------------------------
 (5) _usb_handle_out                                       1     1      0     620
                                             26 COMRAM     1     1      0
                   Absolute function
           _cdc_set_line_coding_data
 ---------------------------------------------------------------------------------
 (6) _cdc_set_line_coding_data                            12    12      0     620
                                             14 COMRAM    12    12      0
                 _usb_set_in_handler
                _usb_set_out_handler
                       _usb_ack_dat1
                             _memcpy
                            ___lldiv
                            ___llmod
 ---------------------------------------------------------------------------------
 (7) ___llmod                                             10     2      8     159
                                              0 COMRAM    10     2      8
 ---------------------------------------------------------------------------------
 (7) ___lldiv                                             14     6      8     162
                                              0 COMRAM    14     6      8
 ---------------------------------------------------------------------------------
 (5) _usb_handle_setup                                     6     6      0    2062
                                             33 COMRAM     6     6      0
                   Absolute function
                          _cdc_setup
                   _usb_RequestError
   _usb_handle_StandardDeviceRequest
_usb_handle_StandardInterfaceRequest
 _usb_handle_StandardEndpointRequest
 ---------------------------------------------------------------------------------
 (6) _usb_handle_StandardEndpointRequest                  12    10      2     540
                                              2 COMRAM    12    10      2
                       _usb_ack_dat1
                   _usb_RequestError
 ---------------------------------------------------------------------------------
 (6) _usb_handle_StandardInterfaceRequest                  6     4      2     133
                                              2 COMRAM     6     4      2
                       _usb_ack_dat1
                   _usb_RequestError
 ---------------------------------------------------------------------------------
 (6) _usb_handle_StandardDeviceRequest                    18    16      2     978
                                             15 COMRAM    18    16      2
               _user_configured_init
                 _usb_set_in_handler
                       _usb_ack_dat1
                   _usb_RequestError
                       _usb_send_rom
 ---------------------------------------------------------------------------------
 (6) _usb_send_rom                                         9     9      0     203
                                              6 COMRAM     9     9      0
                 _usb_set_in_handler
 ---------------------------------------------------------------------------------
 (7) _user_configured_init                                 1     1      0     110
                                              6 COMRAM     1     1      0
   _usb_register_class_setup_handler
                 _usb_set_in_handler
                _usb_set_out_handler
 ---------------------------------------------------------------------------------
 (6) _cdc_setup                                            6     6      0     387
                                             10 COMRAM     6     6      0
                 _usb_set_in_handler
                _usb_set_out_handler
                       _usb_ack_dat1
                   _usb_RequestError
                             _memcpy
 ---------------------------------------------------------------------------------
 (7) _memcpy                                              10     4      6     120
                                              0 COMRAM    10     4      6
 ---------------------------------------------------------------------------------
 (7) _usb_RequestError                                     1     1      0       0
                                              0 COMRAM     1     1      0
 ---------------------------------------------------------------------------------
 (7) _usb_ack_dat1                                         2     0      2      22
                                              0 COMRAM     2     0      2
 ---------------------------------------------------------------------------------
 (2) _usb_set_out_handler                                  6     2      4      44
                                              0 COMRAM     6     2      4
 ---------------------------------------------------------------------------------
 (2) _usb_set_in_handler                                   6     2      4      44
                                              0 COMRAM     6     2      4
 ---------------------------------------------------------------------------------
 (6) Absolute function(Fake)                               0     0      0       0
 ---------------------------------------------------------------------------------
 (4) _USBSuspend                                           0     0      0       0
 ---------------------------------------------------------------------------------
 (4) _usb_handle_reset                                     1     1      0     180
                                              4 COMRAM     1     1      0
                  _ClearUSBtoDefault
 ---------------------------------------------------------------------------------
 (2) _ClearUSBtoDefault                                    4     4      0     180
                                              0 COMRAM     4     4      0
 ---------------------------------------------------------------------------------
 (4) _CDCFlushOnTimeout                                    1     1      0      22
                                              2 COMRAM     1     1      0
                         _getInReady
                          _putda_cdc
 ---------------------------------------------------------------------------------
 (5) _getInReady                                           1     1      0       0
                                              0 COMRAM     1     1      0
 ---------------------------------------------------------------------------------
 (3) _WaitOutReady                                         1     1      0       0
                                              0 COMRAM     1     1      0
 ---------------------------------------------------------------------------------
 (1) _putc_cdc                                             2     1      1      44
                                              2 COMRAM     2     1      1
                          _putda_cdc
 ---------------------------------------------------------------------------------
 (5) _putda_cdc                                            2     1      1      22
                                              0 COMRAM     2     1      1
 ---------------------------------------------------------------------------------
 (1) _initCDC                                              1     1      0      22
                                              2 COMRAM     1     1      0
   _usb_register_class_setup_handler
 ---------------------------------------------------------------------------------
 (8) _usb_register_class_setup_handler                     2     0      2      22
                                              0 COMRAM     2     0      2
 ---------------------------------------------------------------------------------
 Estimated maximum stack depth 8
 ---------------------------------------------------------------------------------

 Call Graph Graphs:

 _main (ROOT)
   _initCDC
     _usb_register_class_setup_handler
   _usb_handler
     Absolute function(Fake)
     _CDCFlushOnTimeout
       _getInReady
       _putda_cdc
     _usb_handle_reset
       _ClearUSBtoDefault
     _USBSuspend
     _usb_handle_transaction
       _usb_handle_setup
         Absolute function(Fake)
         _cdc_setup
           _usb_set_in_handler
           _usb_set_out_handler
           _usb_ack_dat1
           _usb_RequestError
           _memcpy
         _usb_RequestError
         _usb_handle_StandardDeviceRequest
           _user_configured_init
             _usb_register_class_setup_handler
             _usb_set_in_handler
             _usb_set_out_handler
           _usb_set_in_handler
           _usb_ack_dat1
           _usb_RequestError
           _usb_send_rom
             _usb_set_in_handler
         _usb_handle_StandardInterfaceRequest
           _usb_ack_dat1
           _usb_RequestError
         _usb_handle_StandardEndpointRequest
           _usb_ack_dat1
           _usb_RequestError
       _usb_handle_out
         Absolute function(Fake)
         _cdc_set_line_coding_data
           _usb_set_in_handler
           _usb_set_out_handler
           _usb_ack_dat1
           _memcpy
           ___lldiv
           ___llmod
       _usb_handle_in
         Absolute function(Fake)
         _cdc_get_line_coding
           _usb_set_in_handler
         _cdc_set_line_coding_status
           _usb_set_in_handler
         _cdc_set_control_line_state_status
           _usb_set_in_handler
         _usb_send_rom
           _usb_set_in_handler
         _usb_set_address
           _usb_set_in_handler
       ___awdiv
   _putc_cdc
     _putda_cdc
   _getc_cdc
     _getda_cdc
       _WaitOutReady
       _usb_handler
         Absolute function(Fake)
         _CDCFlushOnTimeout
           _getInReady
           _putda_cdc
         _usb_handle_reset
           _ClearUSBtoDefault
         _USBSuspend
         _usb_handle_transaction
           _usb_handle_setup
             Absolute function(Fake)
             _cdc_setup
               _usb_set_in_handler
               _usb_set_out_handler
               _usb_ack_dat1
               _usb_RequestError
               _memcpy
             _usb_RequestError
             _usb_handle_StandardDeviceRequest
               _user_configured_init
                 _usb_register_class_setup_handler
                 _usb_set_in_handler
                 _usb_set_out_handler
               _usb_set_in_handler
               _usb_ack_dat1
               _usb_RequestError
               _usb_send_rom
                 _usb_set_in_handler
             _usb_handle_StandardInterfaceRequest
               _usb_ack_dat1
               _usb_RequestError
             _usb_handle_StandardEndpointRequest
               _usb_ack_dat1
               _usb_RequestError
           _usb_handle_out
             Absolute function(Fake)
             _cdc_set_line_coding_data
               _usb_set_in_handler
               _usb_set_out_handler
               _usb_ack_dat1
               _memcpy
               ___lldiv
               ___llmod
           _usb_handle_in
             Absolute function(Fake)
             _cdc_get_line_coding
               _usb_set_in_handler
             _cdc_set_line_coding_status
               _usb_set_in_handler
             _cdc_set_control_line_state_status
               _usb_set_in_handler
             _usb_send_rom
               _usb_set_in_handler
             _usb_set_address
               _usb_set_in_handler
           ___awdiv
   _peek_getc_cdc
     _getOutReady
     _getda_cdc
       _WaitOutReady
       _usb_handler
         Absolute function(Fake)
         _CDCFlushOnTimeout
           _getInReady
           _putda_cdc
         _usb_handle_reset
           _ClearUSBtoDefault
         _USBSuspend
         _usb_handle_transaction
           _usb_handle_setup
             Absolute function(Fake)
             _cdc_setup
               _usb_set_in_handler
               _usb_set_out_handler
               _usb_ack_dat1
               _usb_RequestError
               _memcpy
             _usb_RequestError
             _usb_handle_StandardDeviceRequest
               _user_configured_init
                 _usb_register_class_setup_handler
                 _usb_set_in_handler
                 _usb_set_out_handler
               _usb_set_in_handler
               _usb_ack_dat1
               _usb_RequestError
               _usb_send_rom
                 _usb_set_in_handler
             _usb_handle_StandardInterfaceRequest
               _usb_ack_dat1
               _usb_RequestError
             _usb_handle_StandardEndpointRequest
               _usb_ack_dat1
               _usb_RequestError
           _usb_handle_out
             Absolute function(Fake)
             _cdc_set_line_coding_data
               _usb_set_in_handler
               _usb_set_out_handler
               _usb_ack_dat1
               _memcpy
               ___lldiv
               ___llmod
           _usb_handle_in
             Absolute function(Fake)
             _cdc_get_line_coding
               _usb_set_in_handler
             _cdc_set_line_coding_status
               _usb_set_in_handler
             _cdc_set_control_line_state_status
               _usb_set_in_handler
             _usb_send_rom
               _usb_set_in_handler
             _usb_set_address
               _usb_set_in_handler
           ___awdiv
   _usb_init
     _usb_set_in_handler
     _usb_set_out_handler
     _ClearUSBtoDefault
   _usb_start
   _usb_register_sof_handler
   _SetupBoard
   _Delay10KTCYx

 Address spaces:
Name               Size   Autos  Total    Cost      Usage
BIGRAM_1           400      0       0      21        0.0%
BIGRAM             3EE      0       0      22        0.0%
EEDATA             100      0       0       0        0.0%
BITBANK7           100      0       0      19        0.0%
BANK7              100      0       0      20        0.0%
BITBANK6           100      0       0      17        0.0%
BANK6              100      0       0      18        0.0%
BITBANK5           100      0       0      15        0.0%
BANK5              100      0       0      16        0.0%
BITBANK4           100      0       0      13        0.0%
BANK4              100      0       0      14        0.0%
BITBANK2           100      0       0       8        0.0%
BANK2              100      0       0       9        0.0%
BITBANK1           100      0       0       6        0.0%
BANK1              100      0     100       7      100.0%
BITBANK3            EF      0       0      12        0.0%
BANK3               EF      0       0      10        0.0%
BITBANK0            A0      0       0       4        0.0%
BANK0               A0      0      85       5       83.1%
BITCOMRAM           5F      0       0       0        0.0%
COMRAM              5F     2E      5E       1       98.9%
BITSFR_5             0      0       0      40        0.0%
SFR_5                0      0       0      40        0.0%
BITSFR_4             0      0       0      40        0.0%
SFR_4                0      0       0      40        0.0%
BITSFR_3             0      0       0      40        0.0%
SFR_3                0      0       0      40        0.0%
BITSFR_2             0      0       0      40        0.0%
SFR_2                0      0       0      40        0.0%
BITSFR_1             0      0       0      40        0.0%
SFR_1                0      0       0      40        0.0%
BITSFR               0      0       0      40        0.0%
SFR                  0      0       0      40        0.0%
STACK                0      0       8       2        0.0%
NULL                 0      0       0       0        0.0%
ABS                  0      0     1E3      11        0.0%
DATA                 0      0     1EB       3        0.0%
CODE                 0      0       0       0        0.0%


Microchip Technology PIC18 Macro Assembler V1.21 build 54009 
Symbol Table                                                                                   Sun Mar 23 09:37:09 2014

                                 _usb_handler 1F7A                  usb_set_in_handler@in_handler 0003  
                         _cdc_get_line_coding 22C4                                            _PA 004E  
                                          _PB 004F                                            _RS 0050  
                                ___awdiv@sign 0007                                   __CFG_BOR$ON 000000  
                               _usb_handle_in 1E36                                   __CFG_BORV$3 000000  
                  __end_of_usb_set_in_handler 21C4                                  __CFG_CP0$OFF 000000  
                                __CFG_CP1$OFF 000000                                  __CFG_CP3$OFF 000000  
                                 _usb_rom_len 0044                                   _usb_rom_ptr 002F  
                                         l108 13D0                                           l136 2268  
                                         l306 2212                                           l139 2280  
                                         l421 1792                                           l406 0E50  
                                         l175 1F78                                           l336 1A50  
                                         l328 1FD6                                           l434 10A6  
                                         l442 1E34                                           l195 20FA  
                                         l438 1EA6                                           l376 09C8  
                                         l473 18DA                                           l297 22F2  
                                         l378 0D60                                           l753 2282  
                                         l986 1DA2                                           l996 1F00  
                                __CFG_CPB$OFF 000000                                           _UIR 000F68  
                                         _cls 00A0                                    _USBSuspend 231A  
                              _usb_handle_out 1DB4                                           prod 000FF3  
                                         tosl 000FFD                                           wreg 000FE8  
                           ?_usb_RequestError 0001                                  _usb_send_rom 18BC  
                           ??_usb_set_address 0007                          usb_set_in_handler@ep 0001  
                        ?_cdc_get_line_coding 0001                                  __CFG_LVP$OFF 000000  
                            _CDCFunctionError 0048                            ??_usb_RequestError 0001  
                                __CFG_WDT$OFF 000000                                          l3001 1FC2  
                                        l3101 1B5E                                          l3041 2174  
                                        l2403 1C00                                          l3019 1A86  
                                        l2421 1D64                                          l3045 2180  
                                        l2343 1486                                          l2255 20B2  
                                        l2407 1C0E                                          l2601 1F52  
                                        l2249 2096                                          l2521 1292  
                                        l2417 1D54                                          l2441 1ECE  
                                        l2283 1C52                                          l2275 1C18  
                                        l2259 22DA                                          l2355 14C8  
                                        l2523 12A8                                          l2515 1270  
                                        l2419 1D60                                          l3075 20F8  
                                        l2517 127E                                          l2429 1D94  
                                        l2445 1EF2                                          l2437 1EBE  
                                        l2381 1BB4                                          l2543 1360  
                                        l2535 131E                                          l2519 128C  
                                        l2439 1ECA                                          l2391 1BDA  
                                        l2375 1BA4                                          l3095 1B48  
                                        l2609 1F76                                          l2529 12D0  
                                        l2545 1366                                          l2801 0960  
                                        l2721 0FF6                                          l2547 13A8  
                                        l2803 0966                                          l2731 107C  
                                        l2723 1004                                          l2387 1BCE  
                                        l2629 2072                                          l2549 13AE  
                                        l2813 09C2                                          l2901 0E10  
                                        l2717 0FE6                                          l2733 1082  
                                        l2741 18E2                                          l2389 1BD6  
                                        l2831 0AA8                                          l2823 09EA  
                                        l2663 1682                                          l2911 10D4  
                                        l2567 1612                                          l2743 18EC  
                                        l2399 1BF6                                          l2681 1758  
                                        l2673 171A                                          l2921 1154  
                                        l2913 10E2                                          l2753 195E  
                                        l2683 175E                                          l2675 1720  
                                        l2667 16D4                                          l2907 10B8  
                                        l2915 10E8                                          l2747 1934  
                                        l2861 0CBA                                          l2845 0C08  
                                        l2837 0B22                                          l2685 1764  
                                        l2925 1174                                          l2917 112A  
                                        l2909 10C6                                          l2765 21CC  
                                        l2749 1942                                          l2599 1F42  
                                        l2855 0C92                                          l2847 0C3C  
                                        l2871 0D36                                          l2783 08C4  
                                        l2935 123C                                          l2927 117A  
                                        l2793 0938                                          l2697 0F3C  
                                        l2689 0E68                                          l2937 1244  
                                        l2929 11BC                                          l2961 1A1E  
                                        l2883 0DB2                                          l2795 093E  
                                        l2787 0916                                          l2699 0F4A  
                                        l2893 0DF2                                          l2877 0D7E  
                                        l2869 0D30                                          l2957 1A12  
                                        l2965 1A24                                          l2895 0DF6  
                                        l2879 0D84                                          l2959 1A18  
                                        l2983 1F8E                                          l2897 0E04  
                                        l2977 1F84                                          l2899 0E0A  
                                        l2989 1F98                                          l2999 1FC0  
                                        u1010 2266                                          u1020 227E  
                                        u1508 1E92                                          u1708 113A  
                                        u1900 20E0                                          u1910 1B38  
                                        u1728 1160                                          u1488 1E20  
                                        u1828 1FAC                                          u1916 1B3A  
                                        u1947 2288                                          _UCFG 000F6F  
                                        _UEP0 000F70                                          _UEP1 000F71  
                                        _UEP2 000F72                                          _UEIR 000F6A  
                             cdc_setup@packet 000F                                          _clkF 0056  
                                        _main 1AF0                                          _lock 0057  
   usb_handle_StandardInterfaceRequest@packet 0007                                          fsr1h 000FE2  
                                        fsr2h 000FDA                                          indf1 000FE7  
                                        fsr1l 000FE1                                          indf2 000FDF  
                                        fsr2l 000FD9                                          prodh 000FF4  
                                        prodl 000FF3                                          start 0002  
                               __CFG_IESO$OFF 000000                                 main@RecvdByte 002E  
                               __CFG_MCLRE$ON 000000                  __end_of_user_configured_init 18BC  
           cdc_set_line_coding_data@dwBaudrem 0013                    __size_of_ClearUSBtoDefault 016C  
                              ?_usb_handle_in 0001                                 __CFG_PLLDIV$5 000000  
                      __end_of_usb_handle_out 1E36                                         ?_main 0001  
                             __end_of___awdiv 1C18                                         _DATA4 0049  
                             __end_of___lldiv 1DB4                               ___awdiv@divisor 0003  
                                  _ZLPpending 0051                               __end_of___llmod 1F12  
                                       _UADDR 000F6E                               ___awdiv@counter 0006  
                                       _SPBRG 000FAF                                 __CFG_USBDIV$2 000000  
                                       _USTAT 000F6C                         __size_of_Delay10KTCYx 0016  
                               __CFG_PWRT$OFF 000000                                 __CFG_WRT0$OFF 000000  
                                       _InPtr 003A                                 __CFG_WRT1$OFF 000000  
                               __CFG_WRT3$OFF 000000                                __CFG_EBTR0$OFF 000000  
                              __CFG_FCMEN$OFF 000000                                __CFG_EBTR1$OFF 000000  
                              __CFG_EBTR3$OFF 000000                                 __CFG_WRTB$OFF 000000  
                               __CFG_WRTC$OFF 000000                         ??_cdc_get_line_coding 0007  
                             __end_of_initCDC 2030                                __CFG_EBTRB$OFF 000000  
                            _usb_handle_reset 2212                              _usb_handle_setup 10A8  
                            _usb_device_state 005A                                         pclath 000FFA  
                                       tablat 000FF5                                         plusw2 000FDB  
                                       status 000FD8                               __initialization 20FC  
                                __end_of_main 1B88      __end_of_usb_handle_StandardDeviceRequest 0E52  
   __size_of_usb_handle_StandardDeviceRequest 05A4            ??_usb_handle_StandardDeviceRequest 0012  
           ?_usb_handle_StandardDeviceRequest 0010              _usb_handle_StandardDeviceRequest 08AE  
                                _Delay10KTCYx 2282                                   _IsInBufferA 004A  
                                      ??_main 002D                               ?_usb_handle_out 0001  
                               __activetblptr 000002                                   ?_USBSuspend 0001  
      usb_handle_StandardEndpointRequest@pUEP 0007        usb_handle_StandardEndpointRequest@epbd 000A  
                                      _ADCON1 000FC1                              ___llmod@dividend 0001  
                            ___awdiv@dividend 0001                            ClearUSBtoDefault@i 0003  
                                      _CVRCON 000FB5                          __size_of_getOutReady 0018  
                             _usb_current_cfg 0040                                        _SPBRGH 000FB0  
                              __CFG_VREGEN$ON 000000                                __CFG_XINST$OFF 000000  
                            __end_of_getc_cdc 2196                      _cdc_set_line_coding_data 153E  
                                      _OutPtr 003C                               ??_usb_handle_in 0010  
  __end_of_usb_handle_StandardEndpointRequest 10A8   __size_of_usb_handle_StandardEndpointRequest 0256  
        ??_usb_handle_StandardEndpointRequest 0005           ?_usb_handle_StandardEndpointRequest 0003  
          _usb_handle_StandardEndpointRequest 0E52                                     ??___awdiv 0005  
                              __CFG_STVREN$ON 000000                                     ??___lldiv 0009  
                                   ??___llmod 0009                                    _SetupBoard 22FC  
                                      _memcpy 2084                                        clear_0 2104  
                                      clear_1 2116                                        clear_2 2122  
                            ___awdiv@quotient 0008                                     ??_initCDC 0003  
                           _usb_device_status 0042                        __size_of_peek_getc_cdc 0038  
                                __mediumconst 0000                                        tblptrh 000FF7  
                                      tblptrl 000FF6                                        tblptru 000FF8  
                            __end_of_putc_cdc 2084                              __end_of_usb_init 1D2E  
                     ?_usb_handle_transaction 0001                          _user_configured_init 1794  
                   usb_init@device_descriptor 0007                                    __accesstop 0060  
                     __end_of__initialization 2128                               __CFG_PBADEN$OFF 000000  
    __end_of_usb_register_class_setup_handler 231A     __size_of_usb_register_class_setup_handler 000A  
          ??_usb_register_class_setup_handler 0003             ?_usb_register_class_setup_handler 0001  
            _usb_register_class_setup_handler 2310                                   _IsSuspended 004C  
   __end_of_cdc_set_control_line_state_status 22C4    __size_of_cdc_set_control_line_state_status 0016  
         ??_cdc_set_control_line_state_status 0007            ?_cdc_set_control_line_state_status 0001  
           _cdc_set_control_line_state_status 22AE               usb_register_sof_handler@handler 0001  
                 __end_of_usb_set_out_handler 2168                           __size_of_USBSuspend 0002  
                          __size_of_cdc_setup 0178                                __pcstackCOMRAM 0001  
                                ?_usb_handler 0001                                    _cdc_In_len 0052  
                             _usb_set_address 21C4                __end_of_usb_handle_transaction 1A52  
                          __size_of_getda_cdc 009E                           _usbrequesterrorflag 005B  
                       ?_user_configured_init 0001                usb_init@num_string_descriptors 000D  
                          _usb_set_in_handler 2196                                    __pbssBANK0 0060  
                                  __pbssBANK1 0100                                    __pnvCOMRAM 005C  
                    _usb_register_sof_handler 2306                                 _peek_getc_cdc 20C4  
                         ?_usb_set_in_handler 0001                     __size_of_usb_RequestError 0026  
                               ?_WaitOutReady 0001                                    _getInReady 226A  
                    __end_of_usb_handle_reset 2234                      __end_of_usb_handle_setup 125A  
           usb_handle_StandardDeviceRequest@i 001E                                   ?_SetupBoard 0001  
                                     ?_memcpy 0001                     usb_init@string_descriptor 000B  
                        ??_usb_set_in_handler 0005                             __end_of_cdc_setup 13D2  
                              _cdc_In_bufferA 0100                                _cdc_In_bufferB 0140  
                          __size_of_putda_cdc 008E                                     ?_getc_cdc 0001  
                          __size_of_usb_start 0010                 __end_of_cdc_device_descriptor 08AC  
                                     _UIRbits 000F68                                 _cdc_trf_state 0055  
                              ?_peek_getc_cdc 002B                                 _cdc_str_descs 0805  
                              ??_WaitOutReady 0001                       __end_of_usb_set_address 21EC  
                           _cdc_acm_in_buffer 00BA                                       __Hparam 0000  
                                     __Lparam 0000                         _usb_device_descriptor 005C  
                                   _CDC_Inbdp 0032                             __end_of_getda_cdc 1AF0  
                               usb_send_rom@i 000C                              ??_usb_handle_out 001B  
                          cdc_setup@reply_len 000D                                       ___awdiv 1B88  
                                     ___lldiv 1D2E                                       ___llmod 1EA8  
                                   ?_putc_cdc 0003                                     ?_usb_init 0007  
                                __psmallconst 0800                                     _EP0_Inbdp 0036  
                                     __pcinit 20FC                               __size_of_memcpy 0040  
                                     __ramtop 0800                                       __ptext0 1AF0  
                                     __ptext1 2282                                       __ptext2 22FC  
                                     __ptext3 2306                                       __ptext4 22EC  
                                     __ptext5 1CA6                                       __ptext6 20C4  
                                     __ptext7 2252                                       __ptext8 2168  
                                     __ptext9 1A52                   __end_of_cdc_get_line_coding 22DA  
                                     _initCDC 1FD8                                  ??_USBSuspend 0001  
                      ??_user_configured_init 0007           __size_of_cdc_set_line_coding_status 0016  
                                     _usb_bdt 00A2                                    ??_getc_cdc 002B  
                                  _parity_str 0800                          end_of_initialization 2128  
                                _IsOutBufferA 004B                    ??_cdc_set_line_coding_data 000F  
                                     memcpy@d 0007                                       memcpy@n 0005  
                         __size_of_SetupBoard 000A                                       memcpy@s 0009  
                               __Lmediumconst 0000                               ___lldiv@divisor 0005  
                             ___lldiv@counter 000E                            __end_of_USBSuspend 231C  
                                 ?_getInReady 0001                                       postdec1 000FE5  
                                     postdec2 000FDD                                       postinc0 000FEE  
                                     postinc2 000FDE                             __end_of_putda_cdc 1CA6  
                                  ??_putc_cdc 0004                                    ??_usb_init 000F  
                           __end_of_usb_start 22FC                          __size_of_usb_handler 005E  
                   usb_init@config_descriptor 0009                                     _PORTBbits 000F81  
     usb_register_class_setup_handler@handler 0001                                     _TRISBbits 000F93  
                       _usb_string_descriptor 00D7                                 ??_getOutReady 0001  
                             ??_peek_getc_cdc 002D                                 ?_usb_ack_dat1 0001  
                                  _trn_status 0058                              _usb_RequestError 21EC  
                            ?_usb_set_address 0001                         __end_of_usb_handle_in 1EA8  
                              __end_of_memcpy 20C4                                   _cdc_Out_len 0053  
                         start_initialization 20FC                          __end_of_WaitOutReady 22EC  
                               ?_usb_send_rom 0001                cdc_set_line_coding_data@dwBaud 0017  
                  ??_usb_register_sof_handler 0003                           __size_of_getInReady 0018  
                              ??_usb_ack_dat1 0003            __end_of_cdc_set_line_coding_status 22AE  
                  _cdc_set_line_coding_status 2298                               ___llmod@divisor 0005  
                         __end_of_getOutReady 226A                               ___llmod@counter 000A  
                                ??_SetupBoard 0001                 __end_of_cdc_config_descriptor 089A  
                           ?_usb_handle_reset 0001                              __CFG_LPT1OSC$OFF 000000  
                           ?_usb_handle_setup 0001                                      ??_memcpy 0007  
                __size_of_usb_set_out_handler 0036                            ??_usb_handle_reset 0005  
                           usb_ack_dat1@bdcnt 0001                            ??_usb_handle_setup 0022  
                              ??_usb_send_rom 0007                                   __pbssCOMRAM 002F  
                       _usb_config_descriptor 00D4              __end_of_cdc_set_line_coding_data 166C  
                                   _cdc_setup 125A                             __size_of_getc_cdc 002E  
                          __end_of_SetupBoard 2306                                     __pnvBANK0 00D4  
                                    ?___awdiv 0001                                      ?___lldiv 0001  
                                    ?___llmod 0001                                 ?_Delay10KTCYx 0001  
                                   _getda_cdc 1A52                             __size_of_putc_cdc 0054  
                           __size_of_usb_init 0088                                     _endpoints 0060  
                        _vendor_setup_handler 0046                                putda_cdc@count 0001  
                                    ?_initCDC 0001                                   __smallconst 0800  
                 __size_of_usb_set_in_handler 002E                                   _getOutReady 2252  
      usb_handle_StandardInterfaceRequest@bdp 0003        usb_handle_StandardDeviceRequest@packet 0020  
                                  ?_cdc_setup 0001                         _cdc_device_descriptor 089A  
                        _usb_handle_setup$352 0026                                  ??_getInReady 0001  
                            __CFG_WDTPS$32768 000000                                ??_Delay10KTCYx 0002  
                                    _UCONbits 000F6D                                    ?_getda_cdc 0001  
                    ??_usb_handle_transaction 0028                         __size_of_WaitOutReady 0012  
                                   getc_cdc@c 002C                    _usb_num_string_descriptors 00DC  
                                   _putda_cdc 1C18                          __end_of_usb_ack_dat1 2252  
                           _CDCFlushOnTimeout 1F12                                     _usb_start 22EC  
              usb_set_out_handler@out_handler 0003                            ?_CDCFlushOnTimeout 0001  
                            _LineStateUpdated 004D                      __end_of_usb_RequestError 2212  
            __end_of_usb_register_sof_handler 2310                              Delay10KTCYx@unit 0001  
                __size_of_cdc_get_line_coding 0016                 __size_of_user_configured_init 0128  
                          __end_of_getInReady 2282                           ??_CDCFlushOnTimeout 0003  
       usb_handle_StandardEndpointRequest@bdp 0003         usb_handle_StandardEndpointRequest@dir 000C  
                                    __Hrparam 0000                          __end_of_usb_send_rom 19A2  
                ??_cdc_set_line_coding_status 0007                                  _WaitOutReady 22DA  
                                    __Lrparam 0000                                 ??_usb_handler 002A  
                                  _CDC_Outbdp 0034             __size_of_cdc_set_line_coding_data 012E  
                            __size_of___awdiv 0090                     ?_cdc_set_line_coding_data 0001  
                   __end_of_CDCFlushOnTimeout 1F7A                              __size_of___lldiv 0086  
                            __size_of___llmod 006A                                    ?_putda_cdc 0001  
                         _class_setup_handler 00DA                                    ?_usb_start 0001  
                            __size_of_initCDC 0058                                   _linecodeing 00DE  
                     __size_of_usb_handle_out 0082      usb_handle_StandardEndpointRequest@packet 000D  
                              peek_getc_cdc@c 002B                                    _EP0_Outbdp 0038  
                                    __ptext10 1F7A                                      __ptext11 19A2  
                                    __ptext20 153E                                      __ptext12 1B88  
                                    __ptext21 1EA8                                      __ptext13 1E36  
                                    __ptext30 21EC                                      __ptext22 1D2E  
                                    __ptext14 18BC                                      __ptext31 2234  
                                    __ptext23 10A8                                      __ptext15 2298  
                                    __ptext40 2030                                      __ptext32 2132  
                                    __ptext24 0E52                                      __ptext16 22AE  
                                    __ptext41 1C18                                      __ptext33 2196  
                                    __ptext25 166C                                      __ptext17 22C4  
                                    __ptext42 1FD8                                      __ptext34 231A  
                                    __ptext26 08AE                                      __ptext18 21C4  
                                    __ptext43 2310                                      __ptext35 2212  
                                    __ptext27 1794                                      __ptext19 1DB4  
                                    __ptext44 0000                                      __ptext36 13D2  
                                    __ptext28 125A                                      __ptext37 1F12  
                                    __ptext29 2084                                      __ptext38 226A  
                                    __ptext39 22DA                                      _getc_cdc 2168  
                                 ??_cdc_setup 000B                           _usb_set_out_handler 2132  
                       __end_of_peek_getc_cdc 20FC                   ?_cdc_set_line_coding_status 0001  
                               __size_of_main 0098                        usb_send_rom@packet_len 000E  
                             _usb_ep0_out_buf 00CC                                      _putc_cdc 2030  
                                    _usb_init 1CA6   __end_of_usb_handle_StandardInterfaceRequest 1794  
__size_of_usb_handle_StandardInterfaceRequest 0128         ??_usb_handle_StandardInterfaceRequest 0005  
        ?_usb_handle_StandardInterfaceRequest 0003           _usb_handle_StandardInterfaceRequest 166C  
                                 ??_getda_cdc 002A                            __end_of_parity_str 0805  
                        ?_usb_set_out_handler 0001                              _usb_addr_pending 0059  
                    __size_of_usb_set_address 0028                             _ClearUSBtoDefault 13D2  
             __size_of_usb_handle_transaction 00B0                           __end_of_usb_handler 1FD8  
                       __CFG_CPUDIV$OSC1_PLL2 000000                            ?_ClearUSBtoDefault 0001  
                                   putc_cdc@c 0003                                      memcpy@d1 0001  
                                    memcpy@s1 0003                           ??_ClearUSBtoDefault 0001  
                   __size_of_usb_handle_reset 0022                          __end_of_Delay10KTCYx 2298  
                   __size_of_usb_handle_setup 01B2                        __size_of_usb_handle_in 0072  
     usb_handle_StandardEndpointRequest@epnum 0009                              ___lldiv@dividend 0001  
                       __end_of_cdc_str_descs 0857                                _usb_ep0_in_buf 00C4  
           __size_of_usb_register_sof_handler 000A                     ?_usb_register_sof_handler 0001  
                       usb_set_out_handler@ep 0001                         __size_of_usb_ack_dat1 001E  
                   __end_of_ClearUSBtoDefault 153E                         ??_usb_set_out_handler 0005  
                  __size_of_CDCFlushOnTimeout 0068                                   ??_putda_cdc 0002  
                                 _sof_handler 003E                         _cdc_config_descriptor 0857  
                                 ??_usb_start 0001                              ___lldiv@quotient 000A  
         usb_handle_StandardDeviceRequest@bdp 0010                                  ?_getOutReady 0001  
                             _cdc_Out_bufferA 0180                               _cdc_Out_bufferB 01C0  
                          __CFG_FOSC$HSPLL_HS 000000                        _usb_handle_transaction 19A2  
                       __size_of_usb_send_rom 00E6                                  _usb_ack_dat1 2234  
                           _cdc_timeout_count 0054  
